
bufbomb:     file format elf32-i386


Disassembly of section .init:

080487fc <_init>:
 80487fc:	55                   	push   %ebp
 80487fd:	89 e5                	mov    %esp,%ebp
 80487ff:	83 ec 08             	sub    $0x8,%esp
 8048802:	e8 6d 02 00 00       	call   8048a74 <call_gmon_start>
 8048807:	e8 f4 02 00 00       	call   8048b00 <frame_dummy>
 804880c:	e8 af 19 00 00       	call   804a1c0 <__do_global_ctors_aux>
 8048811:	c9                   	leave  
 8048812:	c3                   	ret    

Disassembly of section .plt:

08048814 <__errno_location@plt-0x10>:
 8048814:	ff 35 e4 b0 04 08    	pushl  0x804b0e4
 804881a:	ff 25 e8 b0 04 08    	jmp    *0x804b0e8
 8048820:	00 00                	add    %al,(%eax)
	...

08048824 <__errno_location@plt>:
 8048824:	ff 25 ec b0 04 08    	jmp    *0x804b0ec
 804882a:	68 00 00 00 00       	push   $0x0
 804882f:	e9 e0 ff ff ff       	jmp    8048814 <_init+0x18>

08048834 <sprintf@plt>:
 8048834:	ff 25 f0 b0 04 08    	jmp    *0x804b0f0
 804883a:	68 08 00 00 00       	push   $0x8
 804883f:	e9 d0 ff ff ff       	jmp    8048814 <_init+0x18>

08048844 <srand@plt>:
 8048844:	ff 25 f4 b0 04 08    	jmp    *0x804b0f4
 804884a:	68 10 00 00 00       	push   $0x10
 804884f:	e9 c0 ff ff ff       	jmp    8048814 <_init+0x18>

08048854 <connect@plt>:
 8048854:	ff 25 f8 b0 04 08    	jmp    *0x804b0f8
 804885a:	68 18 00 00 00       	push   $0x18
 804885f:	e9 b0 ff ff ff       	jmp    8048814 <_init+0x18>

08048864 <mmap@plt>:
 8048864:	ff 25 fc b0 04 08    	jmp    *0x804b0fc
 804886a:	68 20 00 00 00       	push   $0x20
 804886f:	e9 a0 ff ff ff       	jmp    8048814 <_init+0x18>

08048874 <random@plt>:
 8048874:	ff 25 00 b1 04 08    	jmp    *0x804b100
 804887a:	68 28 00 00 00       	push   $0x28
 804887f:	e9 90 ff ff ff       	jmp    8048814 <_init+0x18>

08048884 <signal@plt>:
 8048884:	ff 25 04 b1 04 08    	jmp    *0x804b104
 804888a:	68 30 00 00 00       	push   $0x30
 804888f:	e9 80 ff ff ff       	jmp    8048814 <_init+0x18>

08048894 <__gmon_start__@plt>:
 8048894:	ff 25 08 b1 04 08    	jmp    *0x804b108
 804889a:	68 38 00 00 00       	push   $0x38
 804889f:	e9 70 ff ff ff       	jmp    8048814 <_init+0x18>

080488a4 <calloc@plt>:
 80488a4:	ff 25 0c b1 04 08    	jmp    *0x804b10c
 80488aa:	68 40 00 00 00       	push   $0x40
 80488af:	e9 60 ff ff ff       	jmp    8048814 <_init+0x18>

080488b4 <write@plt>:
 80488b4:	ff 25 10 b1 04 08    	jmp    *0x804b110
 80488ba:	68 48 00 00 00       	push   $0x48
 80488bf:	e9 50 ff ff ff       	jmp    8048814 <_init+0x18>

080488c4 <memset@plt>:
 80488c4:	ff 25 14 b1 04 08    	jmp    *0x804b114
 80488ca:	68 50 00 00 00       	push   $0x50
 80488cf:	e9 40 ff ff ff       	jmp    8048814 <_init+0x18>

080488d4 <__libc_start_main@plt>:
 80488d4:	ff 25 18 b1 04 08    	jmp    *0x804b118
 80488da:	68 58 00 00 00       	push   $0x58
 80488df:	e9 30 ff ff ff       	jmp    8048814 <_init+0x18>

080488e4 <_IO_getc@plt>:
 80488e4:	ff 25 1c b1 04 08    	jmp    *0x804b11c
 80488ea:	68 60 00 00 00       	push   $0x60
 80488ef:	e9 20 ff ff ff       	jmp    8048814 <_init+0x18>

080488f4 <read@plt>:
 80488f4:	ff 25 20 b1 04 08    	jmp    *0x804b120
 80488fa:	68 68 00 00 00       	push   $0x68
 80488ff:	e9 10 ff ff ff       	jmp    8048814 <_init+0x18>

08048904 <socket@plt>:
 8048904:	ff 25 24 b1 04 08    	jmp    *0x804b124
 804890a:	68 70 00 00 00       	push   $0x70
 804890f:	e9 00 ff ff ff       	jmp    8048814 <_init+0x18>

08048914 <bcopy@plt>:
 8048914:	ff 25 28 b1 04 08    	jmp    *0x804b128
 804891a:	68 78 00 00 00       	push   $0x78
 804891f:	e9 f0 fe ff ff       	jmp    8048814 <_init+0x18>

08048924 <getopt@plt>:
 8048924:	ff 25 2c b1 04 08    	jmp    *0x804b12c
 804892a:	68 80 00 00 00       	push   $0x80
 804892f:	e9 e0 fe ff ff       	jmp    8048814 <_init+0x18>

08048934 <fopen@plt>:
 8048934:	ff 25 30 b1 04 08    	jmp    *0x804b130
 804893a:	68 88 00 00 00       	push   $0x88
 804893f:	e9 d0 fe ff ff       	jmp    8048814 <_init+0x18>

08048944 <alarm@plt>:
 8048944:	ff 25 34 b1 04 08    	jmp    *0x804b134
 804894a:	68 90 00 00 00       	push   $0x90
 804894f:	e9 c0 fe ff ff       	jmp    8048814 <_init+0x18>

08048954 <strcpy@plt>:
 8048954:	ff 25 38 b1 04 08    	jmp    *0x804b138
 804895a:	68 98 00 00 00       	push   $0x98
 804895f:	e9 b0 fe ff ff       	jmp    8048814 <_init+0x18>

08048964 <printf@plt>:
 8048964:	ff 25 3c b1 04 08    	jmp    *0x804b13c
 804896a:	68 a0 00 00 00       	push   $0xa0
 804896f:	e9 a0 fe ff ff       	jmp    8048814 <_init+0x18>

08048974 <strcasecmp@plt>:
 8048974:	ff 25 40 b1 04 08    	jmp    *0x804b140
 804897a:	68 a8 00 00 00       	push   $0xa8
 804897f:	e9 90 fe ff ff       	jmp    8048814 <_init+0x18>

08048984 <srandom@plt>:
 8048984:	ff 25 44 b1 04 08    	jmp    *0x804b144
 804898a:	68 b0 00 00 00       	push   $0xb0
 804898f:	e9 80 fe ff ff       	jmp    8048814 <_init+0x18>

08048994 <close@plt>:
 8048994:	ff 25 48 b1 04 08    	jmp    *0x804b148
 804899a:	68 b8 00 00 00       	push   $0xb8
 804899f:	e9 70 fe ff ff       	jmp    8048814 <_init+0x18>

080489a4 <fwrite@plt>:
 80489a4:	ff 25 4c b1 04 08    	jmp    *0x804b14c
 80489aa:	68 c0 00 00 00       	push   $0xc0
 80489af:	e9 60 fe ff ff       	jmp    8048814 <_init+0x18>

080489b4 <fprintf@plt>:
 80489b4:	ff 25 50 b1 04 08    	jmp    *0x804b150
 80489ba:	68 c8 00 00 00       	push   $0xc8
 80489bf:	e9 50 fe ff ff       	jmp    8048814 <_init+0x18>

080489c4 <gethostname@plt>:
 80489c4:	ff 25 54 b1 04 08    	jmp    *0x804b154
 80489ca:	68 d0 00 00 00       	push   $0xd0
 80489cf:	e9 40 fe ff ff       	jmp    8048814 <_init+0x18>

080489d4 <puts@plt>:
 80489d4:	ff 25 58 b1 04 08    	jmp    *0x804b158
 80489da:	68 d8 00 00 00       	push   $0xd8
 80489df:	e9 30 fe ff ff       	jmp    8048814 <_init+0x18>

080489e4 <rand@plt>:
 80489e4:	ff 25 5c b1 04 08    	jmp    *0x804b15c
 80489ea:	68 e0 00 00 00       	push   $0xe0
 80489ef:	e9 20 fe ff ff       	jmp    8048814 <_init+0x18>

080489f4 <sscanf@plt>:
 80489f4:	ff 25 60 b1 04 08    	jmp    *0x804b160
 80489fa:	68 e8 00 00 00       	push   $0xe8
 80489ff:	e9 10 fe ff ff       	jmp    8048814 <_init+0x18>

08048a04 <munmap@plt>:
 8048a04:	ff 25 64 b1 04 08    	jmp    *0x804b164
 8048a0a:	68 f0 00 00 00       	push   $0xf0
 8048a0f:	e9 00 fe ff ff       	jmp    8048814 <_init+0x18>

08048a14 <gethostbyname@plt>:
 8048a14:	ff 25 68 b1 04 08    	jmp    *0x804b168
 8048a1a:	68 f8 00 00 00       	push   $0xf8
 8048a1f:	e9 f0 fd ff ff       	jmp    8048814 <_init+0x18>

08048a24 <__strdup@plt>:
 8048a24:	ff 25 6c b1 04 08    	jmp    *0x804b16c
 8048a2a:	68 00 01 00 00       	push   $0x100
 8048a2f:	e9 e0 fd ff ff       	jmp    8048814 <_init+0x18>

08048a34 <exit@plt>:
 8048a34:	ff 25 70 b1 04 08    	jmp    *0x804b170
 8048a3a:	68 08 01 00 00       	push   $0x108
 8048a3f:	e9 d0 fd ff ff       	jmp    8048814 <_init+0x18>

Disassembly of section .text:

08048a50 <_start>:
 8048a50:	31 ed                	xor    %ebp,%ebp
 8048a52:	5e                   	pop    %esi
 8048a53:	89 e1                	mov    %esp,%ecx
 8048a55:	83 e4 f0             	and    $0xfffffff0,%esp
 8048a58:	50                   	push   %eax
 8048a59:	54                   	push   %esp
 8048a5a:	52                   	push   %edx
 8048a5b:	68 40 a1 04 08       	push   $0x804a140
 8048a60:	68 50 a1 04 08       	push   $0x804a150
 8048a65:	51                   	push   %ecx
 8048a66:	56                   	push   %esi
 8048a67:	68 c9 8e 04 08       	push   $0x8048ec9
 8048a6c:	e8 63 fe ff ff       	call   80488d4 <__libc_start_main@plt>
 8048a71:	f4                   	hlt    
 8048a72:	90                   	nop
 8048a73:	90                   	nop

08048a74 <call_gmon_start>:
 8048a74:	55                   	push   %ebp
 8048a75:	89 e5                	mov    %esp,%ebp
 8048a77:	53                   	push   %ebx
 8048a78:	83 ec 04             	sub    $0x4,%esp
 8048a7b:	e8 00 00 00 00       	call   8048a80 <call_gmon_start+0xc>
 8048a80:	5b                   	pop    %ebx
 8048a81:	81 c3 60 26 00 00    	add    $0x2660,%ebx
 8048a87:	8b 93 fc ff ff ff    	mov    -0x4(%ebx),%edx
 8048a8d:	85 d2                	test   %edx,%edx
 8048a8f:	74 05                	je     8048a96 <call_gmon_start+0x22>
 8048a91:	e8 fe fd ff ff       	call   8048894 <__gmon_start__@plt>
 8048a96:	58                   	pop    %eax
 8048a97:	5b                   	pop    %ebx
 8048a98:	c9                   	leave  
 8048a99:	c3                   	ret    
 8048a9a:	90                   	nop
 8048a9b:	90                   	nop
 8048a9c:	90                   	nop
 8048a9d:	90                   	nop
 8048a9e:	90                   	nop
 8048a9f:	90                   	nop

08048aa0 <__do_global_dtors_aux>:
 8048aa0:	55                   	push   %ebp
 8048aa1:	89 e5                	mov    %esp,%ebp
 8048aa3:	53                   	push   %ebx
 8048aa4:	83 ec 04             	sub    $0x4,%esp
 8048aa7:	80 3d 0c b3 04 08 00 	cmpb   $0x0,0x804b30c
 8048aae:	75 40                	jne    8048af0 <__do_global_dtors_aux+0x50>
 8048ab0:	8b 15 10 b3 04 08    	mov    0x804b310,%edx
 8048ab6:	b8 0c b0 04 08       	mov    $0x804b00c,%eax
 8048abb:	2d 08 b0 04 08       	sub    $0x804b008,%eax
 8048ac0:	c1 f8 02             	sar    $0x2,%eax
 8048ac3:	8d 58 ff             	lea    -0x1(%eax),%ebx
 8048ac6:	39 da                	cmp    %ebx,%edx
 8048ac8:	73 1f                	jae    8048ae9 <__do_global_dtors_aux+0x49>
 8048aca:	8d b6 00 00 00 00    	lea    0x0(%esi),%esi
 8048ad0:	8d 42 01             	lea    0x1(%edx),%eax
 8048ad3:	a3 10 b3 04 08       	mov    %eax,0x804b310
 8048ad8:	ff 14 85 08 b0 04 08 	call   *0x804b008(,%eax,4)
 8048adf:	8b 15 10 b3 04 08    	mov    0x804b310,%edx
 8048ae5:	39 da                	cmp    %ebx,%edx
 8048ae7:	72 e7                	jb     8048ad0 <__do_global_dtors_aux+0x30>
 8048ae9:	c6 05 0c b3 04 08 01 	movb   $0x1,0x804b30c
 8048af0:	83 c4 04             	add    $0x4,%esp
 8048af3:	5b                   	pop    %ebx
 8048af4:	5d                   	pop    %ebp
 8048af5:	c3                   	ret    
 8048af6:	8d 76 00             	lea    0x0(%esi),%esi
 8048af9:	8d bc 27 00 00 00 00 	lea    0x0(%edi,%eiz,1),%edi

08048b00 <frame_dummy>:
 8048b00:	55                   	push   %ebp
 8048b01:	89 e5                	mov    %esp,%ebp
 8048b03:	83 ec 08             	sub    $0x8,%esp
 8048b06:	a1 10 b0 04 08       	mov    0x804b010,%eax
 8048b0b:	85 c0                	test   %eax,%eax
 8048b0d:	74 12                	je     8048b21 <frame_dummy+0x21>
 8048b0f:	b8 00 00 00 00       	mov    $0x0,%eax
 8048b14:	85 c0                	test   %eax,%eax
 8048b16:	74 09                	je     8048b21 <frame_dummy+0x21>
 8048b18:	c7 04 24 10 b0 04 08 	movl   $0x804b010,(%esp)
 8048b1f:	ff d0                	call   *%eax
 8048b21:	c9                   	leave  
 8048b22:	c3                   	ret    
 8048b23:	90                   	nop
 8048b24:	90                   	nop
 8048b25:	90                   	nop
 8048b26:	90                   	nop
 8048b27:	90                   	nop
 8048b28:	90                   	nop
 8048b29:	90                   	nop
 8048b2a:	90                   	nop
 8048b2b:	90                   	nop
 8048b2c:	90                   	nop
 8048b2d:	90                   	nop
 8048b2e:	90                   	nop
 8048b2f:	90                   	nop

08048b30 <usage>:
 8048b30:	55                   	push   %ebp
 8048b31:	89 e5                	mov    %esp,%ebp
 8048b33:	83 ec 08             	sub    $0x8,%esp
 8048b36:	89 44 24 04          	mov    %eax,0x4(%esp)
 8048b3a:	c7 04 24 10 a2 04 08 	movl   $0x804a210,(%esp)
 8048b41:	e8 1e fe ff ff       	call   8048964 <printf@plt>
 8048b46:	c7 04 24 34 a2 04 08 	movl   $0x804a234,(%esp)
 8048b4d:	e8 82 fe ff ff       	call   80489d4 <puts@plt>
 8048b52:	c7 04 24 cc a3 04 08 	movl   $0x804a3cc,(%esp)
 8048b59:	e8 76 fe ff ff       	call   80489d4 <puts@plt>
 8048b5e:	c7 04 24 58 a2 04 08 	movl   $0x804a258,(%esp)
 8048b65:	e8 6a fe ff ff       	call   80489d4 <puts@plt>
 8048b6a:	c7 04 24 00 00 00 00 	movl   $0x0,(%esp)
 8048b71:	e8 be fe ff ff       	call   8048a34 <exit@plt>

08048b76 <illegalhandler>:
 8048b76:	55                   	push   %ebp
 8048b77:	89 e5                	mov    %esp,%ebp
 8048b79:	83 ec 08             	sub    $0x8,%esp
 8048b7c:	c7 04 24 7c a2 04 08 	movl   $0x804a27c,(%esp)
 8048b83:	e8 4c fe ff ff       	call   80489d4 <puts@plt>
 8048b88:	c7 04 24 e3 a3 04 08 	movl   $0x804a3e3,(%esp)
 8048b8f:	e8 40 fe ff ff       	call   80489d4 <puts@plt>
 8048b94:	c7 04 24 00 00 00 00 	movl   $0x0,(%esp)
 8048b9b:	e8 94 fe ff ff       	call   8048a34 <exit@plt>

08048ba0 <seghandler>:
 8048ba0:	55                   	push   %ebp
 8048ba1:	89 e5                	mov    %esp,%ebp
 8048ba3:	83 ec 08             	sub    $0x8,%esp
 8048ba6:	c7 04 24 a8 a2 04 08 	movl   $0x804a2a8,(%esp)
 8048bad:	e8 22 fe ff ff       	call   80489d4 <puts@plt>
 8048bb2:	c7 04 24 e3 a3 04 08 	movl   $0x804a3e3,(%esp)
 8048bb9:	e8 16 fe ff ff       	call   80489d4 <puts@plt>
 8048bbe:	c7 04 24 00 00 00 00 	movl   $0x0,(%esp)
 8048bc5:	e8 6a fe ff ff       	call   8048a34 <exit@plt>

08048bca <bushandler>:
 8048bca:	55                   	push   %ebp
 8048bcb:	89 e5                	mov    %esp,%ebp
 8048bcd:	83 ec 08             	sub    $0x8,%esp
 8048bd0:	c7 04 24 d0 a2 04 08 	movl   $0x804a2d0,(%esp)
 8048bd7:	e8 f8 fd ff ff       	call   80489d4 <puts@plt>
 8048bdc:	c7 04 24 e3 a3 04 08 	movl   $0x804a3e3,(%esp)
 8048be3:	e8 ec fd ff ff       	call   80489d4 <puts@plt>
 8048be8:	c7 04 24 00 00 00 00 	movl   $0x0,(%esp)
 8048bef:	e8 40 fe ff ff       	call   8048a34 <exit@plt>

08048bf4 <Gets>:
 8048bf4:	55                   	push   %ebp
 8048bf5:	89 e5                	mov    %esp,%ebp
 8048bf7:	57                   	push   %edi
 8048bf8:	56                   	push   %esi
 8048bf9:	53                   	push   %ebx
 8048bfa:	83 ec 0c             	sub    $0xc,%esp
 8048bfd:	c7 05 28 b3 04 08 00 	movl   $0x0,0x804b328
 8048c04:	00 00 00 
 8048c07:	8b 5d 08             	mov    0x8(%ebp),%ebx
 8048c0a:	bf e9 a4 04 08       	mov    $0x804a4e9,%edi
 8048c0f:	eb 46                	jmp    8048c57 <Gets+0x63>
 8048c11:	89 c6                	mov    %eax,%esi
 8048c13:	88 03                	mov    %al,(%ebx)
 8048c15:	8b 0d 28 b3 04 08    	mov    0x804b328,%ecx
 8048c1b:	81 f9 ff 03 00 00    	cmp    $0x3ff,%ecx
 8048c21:	7f 31                	jg     8048c54 <Gets+0x60>
 8048c23:	8d 14 49             	lea    (%ecx,%ecx,2),%edx
 8048c26:	c0 e8 04             	shr    $0x4,%al
 8048c29:	0f be c0             	movsbl %al,%eax
 8048c2c:	0f b6 04 07          	movzbl (%edi,%eax,1),%eax
 8048c30:	88 82 40 b3 04 08    	mov    %al,0x804b340(%edx)
 8048c36:	89 f0                	mov    %esi,%eax
 8048c38:	83 e0 0f             	and    $0xf,%eax
 8048c3b:	0f b6 04 07          	movzbl (%edi,%eax,1),%eax
 8048c3f:	88 82 41 b3 04 08    	mov    %al,0x804b341(%edx)
 8048c45:	c6 82 42 b3 04 08 20 	movb   $0x20,0x804b342(%edx)
 8048c4c:	8d 41 01             	lea    0x1(%ecx),%eax
 8048c4f:	a3 28 b3 04 08       	mov    %eax,0x804b328
 8048c54:	83 c3 01             	add    $0x1,%ebx
 8048c57:	a1 14 b3 04 08       	mov    0x804b314,%eax
 8048c5c:	89 04 24             	mov    %eax,(%esp)
 8048c5f:	e8 80 fc ff ff       	call   80488e4 <_IO_getc@plt>
 8048c64:	83 f8 ff             	cmp    $0xffffffff,%eax
 8048c67:	74 05                	je     8048c6e <Gets+0x7a>
 8048c69:	83 f8 0a             	cmp    $0xa,%eax
 8048c6c:	75 a3                	jne    8048c11 <Gets+0x1d>
 8048c6e:	c6 03 00             	movb   $0x0,(%ebx)
 8048c71:	a1 28 b3 04 08       	mov    0x804b328,%eax
 8048c76:	c6 84 40 40 b3 04 08 	movb   $0x0,0x804b340(%eax,%eax,2)
 8048c7d:	00 
 8048c7e:	8b 45 08             	mov    0x8(%ebp),%eax
 8048c81:	83 c4 0c             	add    $0xc,%esp
 8048c84:	5b                   	pop    %ebx
 8048c85:	5e                   	pop    %esi
 8048c86:	5f                   	pop    %edi
 8048c87:	5d                   	pop    %ebp
 8048c88:	c3                   	ret    

08048c89 <getbufn>:
 8048c89:	55                   	push   %ebp
 8048c8a:	89 e5                	mov    %esp,%ebp
 8048c8c:	81 ec 08 02 00 00    	sub    $0x208,%esp
 8048c92:	8d 85 00 fe ff ff    	lea    -0x200(%ebp),%eax
 8048c98:	89 04 24             	mov    %eax,(%esp)
 8048c9b:	e8 54 ff ff ff       	call   8048bf4 <Gets>
 8048ca0:	b8 01 00 00 00       	mov    $0x1,%eax
 8048ca5:	c9                   	leave  
 8048ca6:	c3                   	ret    

08048ca7 <getbuf>:
 8048ca7:	55                   	push   %ebp
 8048ca8:	89 e5                	mov    %esp,%ebp
 8048caa:	83 ec 28             	sub    $0x28,%esp
 8048cad:	8d 45 e0             	lea    -0x20(%ebp),%eax
 8048cb0:	89 04 24             	mov    %eax,(%esp)
 8048cb3:	e8 3c ff ff ff       	call   8048bf4 <Gets>
 8048cb8:	b8 01 00 00 00       	mov    $0x1,%eax
 8048cbd:	c9                   	leave  
 8048cbe:	c3                   	ret    

08048cbf <testn>:
 8048cbf:	55                   	push   %ebp
 8048cc0:	89 e5                	mov    %esp,%ebp
 8048cc2:	83 ec 18             	sub    $0x18,%esp
 8048cc5:	c7 45 fc ef be ad de 	movl   $0xdeadbeef,-0x4(%ebp)
 8048ccc:	e8 b8 ff ff ff       	call   8048c89 <getbufn>
 8048cd1:	89 c2                	mov    %eax,%edx
 8048cd3:	8b 45 fc             	mov    -0x4(%ebp),%eax
 8048cd6:	3d ef be ad de       	cmp    $0xdeadbeef,%eax
 8048cdb:	74 0e                	je     8048ceb <testn+0x2c>
 8048cdd:	c7 04 24 f0 a2 04 08 	movl   $0x804a2f0,(%esp)
 8048ce4:	e8 eb fc ff ff       	call   80489d4 <puts@plt>
 8048ce9:	eb 36                	jmp    8048d21 <testn+0x62>
 8048ceb:	3b 15 18 b3 04 08    	cmp    0x804b318,%edx
 8048cf1:	75 1e                	jne    8048d11 <testn+0x52>
 8048cf3:	89 54 24 04          	mov    %edx,0x4(%esp)
 8048cf7:	c7 04 24 1c a3 04 08 	movl   $0x804a31c,(%esp)
 8048cfe:	e8 61 fc ff ff       	call   8048964 <printf@plt>
 8048d03:	c7 04 24 04 00 00 00 	movl   $0x4,(%esp)
 8048d0a:	e8 38 05 00 00       	call   8049247 <validate>
 8048d0f:	eb 10                	jmp    8048d21 <testn+0x62>
 8048d11:	89 54 24 04          	mov    %edx,0x4(%esp)
 8048d15:	c7 04 24 f9 a3 04 08 	movl   $0x804a3f9,(%esp)
 8048d1c:	e8 43 fc ff ff       	call   8048964 <printf@plt>
 8048d21:	c9                   	leave  
 8048d22:	c3                   	ret    

08048d23 <test>:
 8048d23:	55                   	push   %ebp
 8048d24:	89 e5                	mov    %esp,%ebp
 8048d26:	83 ec 18             	sub    $0x18,%esp
 8048d29:	c7 45 fc ef be ad de 	movl   $0xdeadbeef,-0x4(%ebp)
 8048d30:	e8 72 ff ff ff       	call   8048ca7 <getbuf>
 8048d35:	89 c2                	mov    %eax,%edx
 8048d37:	8b 45 fc             	mov    -0x4(%ebp),%eax
 8048d3a:	3d ef be ad de       	cmp    $0xdeadbeef,%eax
 8048d3f:	74 0e                	je     8048d4f <test+0x2c>
 8048d41:	c7 04 24 f0 a2 04 08 	movl   $0x804a2f0,(%esp)
 8048d48:	e8 87 fc ff ff       	call   80489d4 <puts@plt>
 8048d4d:	eb 36                	jmp    8048d85 <test+0x62>
 8048d4f:	3b 15 18 b3 04 08    	cmp    0x804b318,%edx
 8048d55:	75 1e                	jne    8048d75 <test+0x52>
 8048d57:	89 54 24 04          	mov    %edx,0x4(%esp)
 8048d5b:	c7 04 24 15 a4 04 08 	movl   $0x804a415,(%esp)
 8048d62:	e8 fd fb ff ff       	call   8048964 <printf@plt>
 8048d67:	c7 04 24 03 00 00 00 	movl   $0x3,(%esp)
 8048d6e:	e8 d4 04 00 00       	call   8049247 <validate>
 8048d73:	eb 10                	jmp    8048d85 <test+0x62>
 8048d75:	89 54 24 04          	mov    %edx,0x4(%esp)
 8048d79:	c7 04 24 32 a4 04 08 	movl   $0x804a432,(%esp)
 8048d80:	e8 df fb ff ff       	call   8048964 <printf@plt>
 8048d85:	c9                   	leave  
 8048d86:	c3                   	ret    

08048d87 <launch>:
 8048d87:	55                   	push   %ebp
 8048d88:	89 e5                	mov    %esp,%ebp
 8048d8a:	53                   	push   %ebx
 8048d8b:	83 ec 54             	sub    $0x54,%esp
 8048d8e:	89 c3                	mov    %eax,%ebx
 8048d90:	8d 45 bc             	lea    -0x44(%ebp),%eax
 8048d93:	25 f8 3f 00 00       	and    $0x3ff8,%eax
 8048d98:	01 c2                	add    %eax,%edx
 8048d9a:	8d 42 1e             	lea    0x1e(%edx),%eax
 8048d9d:	83 e0 f0             	and    $0xfffffff0,%eax
 8048da0:	29 c4                	sub    %eax,%esp
 8048da2:	8d 44 24 1b          	lea    0x1b(%esp),%eax
 8048da6:	83 e0 f0             	and    $0xfffffff0,%eax
 8048da9:	89 54 24 08          	mov    %edx,0x8(%esp)
 8048dad:	c7 44 24 04 f4 00 00 	movl   $0xf4,0x4(%esp)
 8048db4:	00 
 8048db5:	89 04 24             	mov    %eax,(%esp)
 8048db8:	e8 07 fb ff ff       	call   80488c4 <memset@plt>
 8048dbd:	c7 04 24 4d a4 04 08 	movl   $0x804a44d,(%esp)
 8048dc4:	e8 9b fb ff ff       	call   8048964 <printf@plt>
 8048dc9:	85 db                	test   %ebx,%ebx
 8048dcb:	74 07                	je     8048dd4 <launch+0x4d>
 8048dcd:	e8 ed fe ff ff       	call   8048cbf <testn>
 8048dd2:	eb 09                	jmp    8048ddd <launch+0x56>
 8048dd4:	8d 74 26 00          	lea    0x0(%esi,%eiz,1),%esi
 8048dd8:	e8 46 ff ff ff       	call   8048d23 <test>
 8048ddd:	83 3d 20 b3 04 08 00 	cmpl   $0x0,0x804b320
 8048de4:	75 16                	jne    8048dfc <launch+0x75>
 8048de6:	c7 04 24 e3 a3 04 08 	movl   $0x804a3e3,(%esp)
 8048ded:	e8 e2 fb ff ff       	call   80489d4 <puts@plt>
 8048df2:	c7 05 20 b3 04 08 00 	movl   $0x0,0x804b320
 8048df9:	00 00 00 
 8048dfc:	8b 5d fc             	mov    -0x4(%ebp),%ebx
 8048dff:	c9                   	leave  
 8048e00:	c3                   	ret    

08048e01 <launcher>:
 8048e01:	55                   	push   %ebp
 8048e02:	89 e5                	mov    %esp,%ebp
 8048e04:	53                   	push   %ebx
 8048e05:	83 ec 24             	sub    $0x24,%esp
 8048e08:	8b 45 08             	mov    0x8(%ebp),%eax
 8048e0b:	a3 2c b3 04 08       	mov    %eax,0x804b32c
 8048e10:	8b 45 0c             	mov    0xc(%ebp),%eax
 8048e13:	a3 30 b3 04 08       	mov    %eax,0x804b330
 8048e18:	c7 44 24 14 00 00 00 	movl   $0x0,0x14(%esp)
 8048e1f:	00 
 8048e20:	c7 44 24 10 00 00 00 	movl   $0x0,0x10(%esp)
 8048e27:	00 
 8048e28:	c7 44 24 0c 22 01 00 	movl   $0x122,0xc(%esp)
 8048e2f:	00 
 8048e30:	c7 44 24 08 07 00 00 	movl   $0x7,0x8(%esp)
 8048e37:	00 
 8048e38:	c7 44 24 04 00 00 10 	movl   $0x100000,0x4(%esp)
 8048e3f:	00 
 8048e40:	c7 04 24 00 60 58 55 	movl   $0x55586000,(%esp)
 8048e47:	e8 18 fa ff ff       	call   8048864 <mmap@plt>
 8048e4c:	89 c3                	mov    %eax,%ebx
 8048e4e:	83 f8 ff             	cmp    $0xffffffff,%eax
 8048e51:	75 31                	jne    8048e84 <launcher+0x83>
 8048e53:	a1 00 b3 04 08       	mov    0x804b300,%eax
 8048e58:	89 44 24 0c          	mov    %eax,0xc(%esp)
 8048e5c:	c7 44 24 08 23 00 00 	movl   $0x23,0x8(%esp)
 8048e63:	00 
 8048e64:	c7 44 24 04 01 00 00 	movl   $0x1,0x4(%esp)
 8048e6b:	00 
 8048e6c:	c7 04 24 3c a3 04 08 	movl   $0x804a33c,(%esp)
 8048e73:	e8 2c fb ff ff       	call   80489a4 <fwrite@plt>
 8048e78:	c7 04 24 01 00 00 00 	movl   $0x1,(%esp)
 8048e7f:	e8 b0 fb ff ff       	call   8048a34 <exit@plt>
 8048e84:	8d 90 f8 ff 0f 00    	lea    0xffff8(%eax),%edx
 8048e8a:	89 15 44 bf 04 08    	mov    %edx,0x804bf44
 8048e90:	89 e0                	mov    %esp,%eax
 8048e92:	89 d4                	mov    %edx,%esp
 8048e94:	89 c2                	mov    %eax,%edx
 8048e96:	89 15 34 b3 04 08    	mov    %edx,0x804b334
 8048e9c:	8b 15 30 b3 04 08    	mov    0x804b330,%edx
 8048ea2:	a1 2c b3 04 08       	mov    0x804b32c,%eax
 8048ea7:	e8 db fe ff ff       	call   8048d87 <launch>
 8048eac:	a1 34 b3 04 08       	mov    0x804b334,%eax
 8048eb1:	89 c4                	mov    %eax,%esp
 8048eb3:	c7 44 24 04 00 00 10 	movl   $0x100000,0x4(%esp)
 8048eba:	00 
 8048ebb:	89 1c 24             	mov    %ebx,(%esp)
 8048ebe:	e8 41 fb ff ff       	call   8048a04 <munmap@plt>
 8048ec3:	83 c4 24             	add    $0x24,%esp
 8048ec6:	5b                   	pop    %ebx
 8048ec7:	5d                   	pop    %ebp
 8048ec8:	c3                   	ret    

08048ec9 <main>:
 8048ec9:	8d 4c 24 04          	lea    0x4(%esp),%ecx
 8048ecd:	83 e4 f0             	and    $0xfffffff0,%esp
 8048ed0:	ff 71 fc             	pushl  -0x4(%ecx)
 8048ed3:	55                   	push   %ebp
 8048ed4:	89 e5                	mov    %esp,%ebp
 8048ed6:	57                   	push   %edi
 8048ed7:	56                   	push   %esi
 8048ed8:	53                   	push   %ebx
 8048ed9:	51                   	push   %ecx
 8048eda:	83 ec 28             	sub    $0x28,%esp
 8048edd:	8b 31                	mov    (%ecx),%esi
 8048edf:	8b 59 04             	mov    0x4(%ecx),%ebx
 8048ee2:	c7 44 24 04 a0 8b 04 	movl   $0x8048ba0,0x4(%esp)
 8048ee9:	08 
 8048eea:	c7 04 24 0b 00 00 00 	movl   $0xb,(%esp)
 8048ef1:	e8 8e f9 ff ff       	call   8048884 <signal@plt>
 8048ef6:	c7 44 24 04 ca 8b 04 	movl   $0x8048bca,0x4(%esp)
 8048efd:	08 
 8048efe:	c7 04 24 07 00 00 00 	movl   $0x7,(%esp)
 8048f05:	e8 7a f9 ff ff       	call   8048884 <signal@plt>
 8048f0a:	c7 44 24 04 76 8b 04 	movl   $0x8048b76,0x4(%esp)
 8048f11:	08 
 8048f12:	c7 04 24 04 00 00 00 	movl   $0x4,(%esp)
 8048f19:	e8 66 f9 ff ff       	call   8048884 <signal@plt>
 8048f1e:	e8 9a 04 00 00       	call   80493bd <initialize_bomb>
 8048f23:	a1 04 b3 04 08       	mov    0x804b304,%eax
 8048f28:	a3 14 b3 04 08       	mov    %eax,0x804b314
 8048f2d:	c7 45 e4 00 00 00 00 	movl   $0x0,-0x1c(%ebp)
 8048f34:	c7 45 ec 01 00 00 00 	movl   $0x1,-0x14(%ebp)
 8048f3b:	bf 01 00 00 00       	mov    $0x1,%edi
 8048f40:	e9 d5 00 00 00       	jmp    804901a <main+0x151>
 8048f45:	3c 68                	cmp    $0x68,%al
 8048f47:	74 3c                	je     8048f85 <main+0xbc>
 8048f49:	3c 68                	cmp    $0x68,%al
 8048f4b:	7f 0d                	jg     8048f5a <main+0x91>
 8048f4d:	3c 66                	cmp    $0x66,%al
 8048f4f:	90                   	nop
 8048f50:	0f 85 bd 00 00 00    	jne    8049013 <main+0x14a>
 8048f56:	66 90                	xchg   %ax,%ax
 8048f58:	eb 7d                	jmp    8048fd7 <main+0x10e>
 8048f5a:	3c 6e                	cmp    $0x6e,%al
 8048f5c:	8d 74 26 00          	lea    0x0(%esi,%eiz,1),%esi
 8048f60:	74 10                	je     8048f72 <main+0xa9>
 8048f62:	3c 74                	cmp    $0x74,%al
 8048f64:	8d 74 26 00          	lea    0x0(%esi,%eiz,1),%esi
 8048f68:	0f 85 a5 00 00 00    	jne    8049013 <main+0x14a>
 8048f6e:	66 90                	xchg   %ax,%ax
 8048f70:	eb 1f                	jmp    8048f91 <main+0xc8>
 8048f72:	89 7d e4             	mov    %edi,-0x1c(%ebp)
 8048f75:	c7 45 ec 05 00 00 00 	movl   $0x5,-0x14(%ebp)
 8048f7c:	8d 74 26 00          	lea    0x0(%esi,%eiz,1),%esi
 8048f80:	e9 95 00 00 00       	jmp    804901a <main+0x151>
 8048f85:	8b 03                	mov    (%ebx),%eax
 8048f87:	e8 a4 fb ff ff       	call   8048b30 <usage>
 8048f8c:	e9 89 00 00 00       	jmp    804901a <main+0x151>
 8048f91:	a1 08 b3 04 08       	mov    0x804b308,%eax
 8048f96:	89 04 24             	mov    %eax,(%esp)
 8048f99:	e8 86 fa ff ff       	call   8048a24 <__strdup@plt>
 8048f9e:	a3 1c b3 04 08       	mov    %eax,0x804b31c
 8048fa3:	89 44 24 04          	mov    %eax,0x4(%esp)
 8048fa7:	c7 04 24 5a a4 04 08 	movl   $0x804a45a,(%esp)
 8048fae:	e8 b1 f9 ff ff       	call   8048964 <printf@plt>
 8048fb3:	a1 1c b3 04 08       	mov    0x804b31c,%eax
 8048fb8:	89 04 24             	mov    %eax,(%esp)
 8048fbb:	e8 4b 11 00 00       	call   804a10b <gencookie>
 8048fc0:	a3 18 b3 04 08       	mov    %eax,0x804b318
 8048fc5:	89 44 24 04          	mov    %eax,0x4(%esp)
 8048fc9:	c7 04 24 66 a4 04 08 	movl   $0x804a466,(%esp)
 8048fd0:	e8 8f f9 ff ff       	call   8048964 <printf@plt>
 8048fd5:	eb 43                	jmp    804901a <main+0x151>
 8048fd7:	c7 44 24 04 74 a4 04 	movl   $0x804a474,0x4(%esp)
 8048fde:	08 
 8048fdf:	a1 08 b3 04 08       	mov    0x804b308,%eax
 8048fe4:	89 04 24             	mov    %eax,(%esp)
 8048fe7:	e8 48 f9 ff ff       	call   8048934 <fopen@plt>
 8048fec:	a3 14 b3 04 08       	mov    %eax,0x804b314
 8048ff1:	85 c0                	test   %eax,%eax
 8048ff3:	75 25                	jne    804901a <main+0x151>
 8048ff5:	a1 08 b3 04 08       	mov    0x804b308,%eax
 8048ffa:	89 44 24 04          	mov    %eax,0x4(%esp)
 8048ffe:	c7 04 24 76 a4 04 08 	movl   $0x804a476,(%esp)
 8049005:	e8 5a f9 ff ff       	call   8048964 <printf@plt>
 804900a:	8b 03                	mov    (%ebx),%eax
 804900c:	e8 1f fb ff ff       	call   8048b30 <usage>
 8049011:	eb 07                	jmp    804901a <main+0x151>
 8049013:	8b 03                	mov    (%ebx),%eax
 8049015:	e8 16 fb ff ff       	call   8048b30 <usage>
 804901a:	c7 44 24 08 8b a4 04 	movl   $0x804a48b,0x8(%esp)
 8049021:	08 
 8049022:	89 5c 24 04          	mov    %ebx,0x4(%esp)
 8049026:	89 34 24             	mov    %esi,(%esp)
 8049029:	e8 f6 f8 ff ff       	call   8048924 <getopt@plt>
 804902e:	3c ff                	cmp    $0xff,%al
 8049030:	0f 85 0f ff ff ff    	jne    8048f45 <main+0x7c>
 8049036:	83 3d 1c b3 04 08 00 	cmpl   $0x0,0x804b31c
 804903d:	75 13                	jne    8049052 <main+0x189>
 804903f:	c7 04 24 60 a3 04 08 	movl   $0x804a360,(%esp)
 8049046:	e8 89 f9 ff ff       	call   80489d4 <puts@plt>
 804904b:	8b 03                	mov    (%ebx),%eax
 804904d:	e8 de fa ff ff       	call   8048b30 <usage>
 8049052:	a1 18 b3 04 08       	mov    0x804b318,%eax
 8049057:	89 04 24             	mov    %eax,(%esp)
 804905a:	e8 25 f9 ff ff       	call   8048984 <srandom@plt>
 804905f:	e8 10 f8 ff ff       	call   8048874 <random@plt>
 8049064:	25 f8 0f 00 00       	and    $0xff8,%eax
 8049069:	89 45 e0             	mov    %eax,-0x20(%ebp)
 804906c:	8b 45 ec             	mov    -0x14(%ebp),%eax
 804906f:	89 45 dc             	mov    %eax,-0x24(%ebp)
 8049072:	c7 44 24 04 04 00 00 	movl   $0x4,0x4(%esp)
 8049079:	00 
 804907a:	89 04 24             	mov    %eax,(%esp)
 804907d:	e8 22 f8 ff ff       	call   80488a4 <calloc@plt>
 8049082:	89 c6                	mov    %eax,%esi
 8049084:	89 45 e8             	mov    %eax,-0x18(%ebp)
 8049087:	8b 7d ec             	mov    -0x14(%ebp),%edi
 804908a:	83 ef 02             	sub    $0x2,%edi
 804908d:	85 ff                	test   %edi,%edi
 804908f:	7e 17                	jle    80490a8 <main+0x1df>
 8049091:	bb 00 00 00 00       	mov    $0x0,%ebx
 8049096:	e8 d9 f7 ff ff       	call   8048874 <random@plt>
 804909b:	83 e0 38             	and    $0x38,%eax
 804909e:	89 04 9e             	mov    %eax,(%esi,%ebx,4)
 80490a1:	83 c3 01             	add    $0x1,%ebx
 80490a4:	39 fb                	cmp    %edi,%ebx
 80490a6:	7c ee                	jl     8049096 <main+0x1cd>
 80490a8:	83 7d ec 01          	cmpl   $0x1,-0x14(%ebp)
 80490ac:	7e 0e                	jle    80490bc <main+0x1f3>
 80490ae:	8b 45 dc             	mov    -0x24(%ebp),%eax
 80490b1:	8b 55 e8             	mov    -0x18(%ebp),%edx
 80490b4:	c7 44 82 f8 38 00 00 	movl   $0x38,-0x8(%edx,%eax,4)
 80490bb:	00 
 80490bc:	8b 45 dc             	mov    -0x24(%ebp),%eax
 80490bf:	8b 55 e8             	mov    -0x18(%ebp),%edx
 80490c2:	c7 44 82 fc 00 00 00 	movl   $0x0,-0x4(%edx,%eax,4)
 80490c9:	00 
 80490ca:	83 7d ec 00          	cmpl   $0x0,-0x14(%ebp)
 80490ce:	7e 22                	jle    80490f2 <main+0x229>
 80490d0:	bb 00 00 00 00       	mov    $0x0,%ebx
 80490d5:	8b 45 e0             	mov    -0x20(%ebp),%eax
 80490d8:	03 04 9e             	add    (%esi,%ebx,4),%eax
 80490db:	89 44 24 04          	mov    %eax,0x4(%esp)
 80490df:	8b 45 e4             	mov    -0x1c(%ebp),%eax
 80490e2:	89 04 24             	mov    %eax,(%esp)
 80490e5:	e8 17 fd ff ff       	call   8048e01 <launcher>
 80490ea:	83 c3 01             	add    $0x1,%ebx
 80490ed:	39 5d ec             	cmp    %ebx,-0x14(%ebp)
 80490f0:	7f e3                	jg     80490d5 <main+0x20c>
 80490f2:	b8 00 00 00 00       	mov    $0x0,%eax
 80490f7:	83 c4 28             	add    $0x28,%esp
 80490fa:	59                   	pop    %ecx
 80490fb:	5b                   	pop    %ebx
 80490fc:	5e                   	pop    %esi
 80490fd:	5f                   	pop    %edi
 80490fe:	5d                   	pop    %ebp
 80490ff:	8d 61 fc             	lea    -0x4(%ecx),%esp
 8049102:	c3                   	ret    

08049103 <bang>:
 8049103:	55                   	push   %ebp
 8049104:	89 e5                	mov    %esp,%ebp
 8049106:	83 ec 08             	sub    $0x8,%esp
 8049109:	a1 24 b3 04 08       	mov    0x804b324,%eax
 804910e:	3b 05 18 b3 04 08    	cmp    0x804b318,%eax
 8049114:	75 1e                	jne    8049134 <bang+0x31>
 8049116:	89 44 24 04          	mov    %eax,0x4(%esp)
 804911a:	c7 04 24 84 a3 04 08 	movl   $0x804a384,(%esp)
 8049121:	e8 3e f8 ff ff       	call   8048964 <printf@plt>
 8049126:	c7 04 24 02 00 00 00 	movl   $0x2,(%esp)
 804912d:	e8 15 01 00 00       	call   8049247 <validate>
 8049132:	eb 10                	jmp    8049144 <bang+0x41>
 8049134:	89 44 24 04          	mov    %eax,0x4(%esp)
 8049138:	c7 04 24 92 a4 04 08 	movl   $0x804a492,(%esp)
 804913f:	e8 20 f8 ff ff       	call   8048964 <printf@plt>
 8049144:	c7 04 24 00 00 00 00 	movl   $0x0,(%esp)
 804914b:	e8 e4 f8 ff ff       	call   8048a34 <exit@plt>

08049150 <fizz>:
 8049150:	55                   	push   %ebp
 8049151:	89 e5                	mov    %esp,%ebp
 8049153:	83 ec 08             	sub    $0x8,%esp
 8049156:	8b 45 08             	mov    0x8(%ebp),%eax
 8049159:	3b 05 18 b3 04 08    	cmp    0x804b318,%eax
 804915f:	75 1e                	jne    804917f <fizz+0x2f>
 8049161:	89 44 24 04          	mov    %eax,0x4(%esp)
 8049165:	c7 04 24 b0 a4 04 08 	movl   $0x804a4b0,(%esp)
 804916c:	e8 f3 f7 ff ff       	call   8048964 <printf@plt>
 8049171:	c7 04 24 01 00 00 00 	movl   $0x1,(%esp)
 8049178:	e8 ca 00 00 00       	call   8049247 <validate>
 804917d:	eb 10                	jmp    804918f <fizz+0x3f>
 804917f:	89 44 24 04          	mov    %eax,0x4(%esp)
 8049183:	c7 04 24 ac a3 04 08 	movl   $0x804a3ac,(%esp)
 804918a:	e8 d5 f7 ff ff       	call   8048964 <printf@plt>
 804918f:	c7 04 24 00 00 00 00 	movl   $0x0,(%esp)
 8049196:	e8 99 f8 ff ff       	call   8048a34 <exit@plt>

0804919b <smoke>:
 804919b:	55                   	push   %ebp
 804919c:	89 e5                	mov    %esp,%ebp
 804919e:	83 ec 08             	sub    $0x8,%esp
 80491a1:	c7 04 24 ce a4 04 08 	movl   $0x804a4ce,(%esp)
 80491a8:	e8 27 f8 ff ff       	call   80489d4 <puts@plt>
 80491ad:	c7 04 24 00 00 00 00 	movl   $0x0,(%esp)
 80491b4:	e8 8e 00 00 00       	call   8049247 <validate>
 80491b9:	c7 04 24 00 00 00 00 	movl   $0x0,(%esp)
 80491c0:	e8 6f f8 ff ff       	call   8048a34 <exit@plt>
 80491c5:	90                   	nop
 80491c6:	90                   	nop
 80491c7:	90                   	nop
 80491c8:	90                   	nop
 80491c9:	90                   	nop
 80491ca:	90                   	nop
 80491cb:	90                   	nop
 80491cc:	90                   	nop
 80491cd:	90                   	nop
 80491ce:	90                   	nop
 80491cf:	90                   	nop

080491d0 <server_check>:
 80491d0:	55                   	push   %ebp
 80491d1:	89 e5                	mov    %esp,%ebp
 80491d3:	83 ec 08             	sub    $0x8,%esp
 80491d6:	8b 4d 08             	mov    0x8(%ebp),%ecx
 80491d9:	83 3d 1c b3 04 08 00 	cmpl   $0x0,0x804b31c
 80491e0:	75 0e                	jne    80491f0 <server_check+0x20>
 80491e2:	c7 04 24 fc a4 04 08 	movl   $0x804a4fc,(%esp)
 80491e9:	e8 e6 f7 ff ff       	call   80489d4 <puts@plt>
 80491ee:	eb 55                	jmp    8049245 <server_check+0x75>
 80491f0:	83 f9 04             	cmp    $0x4,%ecx
 80491f3:	76 0e                	jbe    8049203 <server_check+0x33>
 80491f5:	c7 04 24 28 a5 04 08 	movl   $0x804a528,(%esp)
 80491fc:	e8 d3 f7 ff ff       	call   80489d4 <puts@plt>
 8049201:	eb 42                	jmp    8049245 <server_check+0x75>
 8049203:	c7 05 20 b3 04 08 01 	movl   $0x1,0x804b320
 804920a:	00 00 00 
 804920d:	ba e4 b2 04 08       	mov    $0x804b2e4,%edx
 8049212:	8b 04 8a             	mov    (%edx,%ecx,4),%eax
 8049215:	83 e8 01             	sub    $0x1,%eax
 8049218:	89 04 8a             	mov    %eax,(%edx,%ecx,4)
 804921b:	85 c0                	test   %eax,%eax
 804921d:	7e 0e                	jle    804922d <server_check+0x5d>
 804921f:	c7 04 24 b3 a6 04 08 	movl   $0x804a6b3,(%esp)
 8049226:	e8 a9 f7 ff ff       	call   80489d4 <puts@plt>
 804922b:	eb 18                	jmp    8049245 <server_check+0x75>
 804922d:	c7 04 24 be a6 04 08 	movl   $0x804a6be,(%esp)
 8049234:	e8 9b f7 ff ff       	call   80489d4 <puts@plt>
 8049239:	c7 04 24 c7 a6 04 08 	movl   $0x804a6c7,(%esp)
 8049240:	e8 8f f7 ff ff       	call   80489d4 <puts@plt>
 8049245:	c9                   	leave  
 8049246:	c3                   	ret    

08049247 <validate>:
 8049247:	55                   	push   %ebp
 8049248:	89 e5                	mov    %esp,%ebp
 804924a:	81 ec 28 40 00 00    	sub    $0x4028,%esp
 8049250:	89 5d f8             	mov    %ebx,-0x8(%ebp)
 8049253:	89 7d fc             	mov    %edi,-0x4(%ebp)
 8049256:	8b 5d 08             	mov    0x8(%ebp),%ebx
 8049259:	83 3d 1c b3 04 08 00 	cmpl   $0x0,0x804b31c
 8049260:	75 11                	jne    8049273 <validate+0x2c>
 8049262:	c7 04 24 fc a4 04 08 	movl   $0x804a4fc,(%esp)
 8049269:	e8 66 f7 ff ff       	call   80489d4 <puts@plt>
 804926e:	e9 0e 01 00 00       	jmp    8049381 <validate+0x13a>
 8049273:	83 fb 04             	cmp    $0x4,%ebx
 8049276:	76 11                	jbe    8049289 <validate+0x42>
 8049278:	c7 04 24 28 a5 04 08 	movl   $0x804a528,(%esp)
 804927f:	e8 50 f7 ff ff       	call   80489d4 <puts@plt>
 8049284:	e9 f8 00 00 00       	jmp    8049381 <validate+0x13a>
 8049289:	c7 05 20 b3 04 08 01 	movl   $0x1,0x804b320
 8049290:	00 00 00 
 8049293:	ba e4 b2 04 08       	mov    $0x804b2e4,%edx
 8049298:	8b 04 9a             	mov    (%edx,%ebx,4),%eax
 804929b:	83 e8 01             	sub    $0x1,%eax
 804929e:	89 04 9a             	mov    %eax,(%edx,%ebx,4)
 80492a1:	85 c0                	test   %eax,%eax
 80492a3:	7e 11                	jle    80492b6 <validate+0x6f>
 80492a5:	c7 04 24 b3 a6 04 08 	movl   $0x804a6b3,(%esp)
 80492ac:	e8 23 f7 ff ff       	call   80489d4 <puts@plt>
 80492b1:	e9 cb 00 00 00       	jmp    8049381 <validate+0x13a>
 80492b6:	c7 04 24 d1 a6 04 08 	movl   $0x804a6d1,(%esp)
 80492bd:	e8 12 f7 ff ff       	call   80489d4 <puts@plt>
 80492c2:	a1 e0 b2 04 08       	mov    0x804b2e0,%eax
 80492c7:	83 f8 01             	cmp    $0x1,%eax
 80492ca:	0f 85 a5 00 00 00    	jne    8049375 <validate+0x12e>
 80492d0:	bf 40 b3 04 08       	mov    $0x804b340,%edi
 80492d5:	b8 00 00 00 00       	mov    $0x0,%eax
 80492da:	b9 ff ff ff ff       	mov    $0xffffffff,%ecx
 80492df:	f2 ae                	repnz scas %es:(%edi),%al
 80492e1:	f7 d1                	not    %ecx
 80492e3:	83 c1 1f             	add    $0x1f,%ecx
 80492e6:	81 f9 00 20 00 00    	cmp    $0x2000,%ecx
 80492ec:	76 11                	jbe    80492ff <validate+0xb8>
 80492ee:	c7 04 24 50 a5 04 08 	movl   $0x804a550,(%esp)
 80492f5:	e8 da f6 ff ff       	call   80489d4 <puts@plt>
 80492fa:	e9 82 00 00 00       	jmp    8049381 <validate+0x13a>
 80492ff:	c7 44 24 10 40 b3 04 	movl   $0x804b340,0x10(%esp)
 8049306:	08 
 8049307:	a1 18 b3 04 08       	mov    0x804b318,%eax
 804930c:	89 44 24 0c          	mov    %eax,0xc(%esp)
 8049310:	89 5c 24 08          	mov    %ebx,0x8(%esp)
 8049314:	c7 44 24 04 d7 a6 04 	movl   $0x804a6d7,0x4(%esp)
 804931b:	08 
 804931c:	8d 9d f8 df ff ff    	lea    -0x2008(%ebp),%ebx
 8049322:	89 1c 24             	mov    %ebx,(%esp)
 8049325:	e8 0a f5 ff ff       	call   8048834 <sprintf@plt>
 804932a:	8d 85 f8 bf ff ff    	lea    -0x4008(%ebp),%eax
 8049330:	89 44 24 0c          	mov    %eax,0xc(%esp)
 8049334:	c7 44 24 08 00 00 00 	movl   $0x0,0x8(%esp)
 804933b:	00 
 804933c:	89 5c 24 04          	mov    %ebx,0x4(%esp)
 8049340:	a1 1c b3 04 08       	mov    0x804b31c,%eax
 8049345:	89 04 24             	mov    %eax,(%esp)
 8049348:	e8 9e 0c 00 00       	call   8049feb <driver_post>
 804934d:	85 c0                	test   %eax,%eax
 804934f:	75 0e                	jne    804935f <validate+0x118>
 8049351:	c7 04 24 80 a5 04 08 	movl   $0x804a580,(%esp)
 8049358:	e8 77 f6 ff ff       	call   80489d4 <puts@plt>
 804935d:	eb 16                	jmp    8049375 <validate+0x12e>
 804935f:	8d 85 f8 bf ff ff    	lea    -0x4008(%ebp),%eax
 8049365:	89 44 24 04          	mov    %eax,0x4(%esp)
 8049369:	c7 04 24 b0 a5 04 08 	movl   $0x804a5b0,(%esp)
 8049370:	e8 ef f5 ff ff       	call   8048964 <printf@plt>
 8049375:	c7 04 24 e0 a6 04 08 	movl   $0x804a6e0,(%esp)
 804937c:	e8 53 f6 ff ff       	call   80489d4 <puts@plt>
 8049381:	8b 5d f8             	mov    -0x8(%ebp),%ebx
 8049384:	8b 7d fc             	mov    -0x4(%ebp),%edi
 8049387:	89 ec                	mov    %ebp,%esp
 8049389:	5d                   	pop    %ebp
 804938a:	c3                   	ret    

0804938b <alarmhandler>:
 804938b:	55                   	push   %ebp
 804938c:	89 e5                	mov    %esp,%ebp
 804938e:	83 ec 08             	sub    $0x8,%esp
 8049391:	c7 44 24 04 58 02 00 	movl   $0x258,0x4(%esp)
 8049398:	00 
 8049399:	c7 04 24 f0 a5 04 08 	movl   $0x804a5f0,(%esp)
 80493a0:	e8 bf f5 ff ff       	call   8048964 <printf@plt>
 80493a5:	c7 04 24 e3 a3 04 08 	movl   $0x804a3e3,(%esp)
 80493ac:	e8 23 f6 ff ff       	call   80489d4 <puts@plt>
 80493b1:	c7 04 24 00 00 00 00 	movl   $0x0,(%esp)
 80493b8:	e8 77 f6 ff ff       	call   8048a34 <exit@plt>

080493bd <initialize_bomb>:
 80493bd:	55                   	push   %ebp
 80493be:	89 e5                	mov    %esp,%ebp
 80493c0:	81 ec 58 20 00 00    	sub    $0x2058,%esp
 80493c6:	89 5d f4             	mov    %ebx,-0xc(%ebp)
 80493c9:	89 75 f8             	mov    %esi,-0x8(%ebp)
 80493cc:	89 7d fc             	mov    %edi,-0x4(%ebp)
 80493cf:	a1 e0 b2 04 08       	mov    0x804b2e0,%eax
 80493d4:	83 f8 01             	cmp    $0x1,%eax
 80493d7:	0f 85 d4 00 00 00    	jne    80494b1 <initialize_bomb+0xf4>
 80493dd:	c7 44 24 04 40 00 00 	movl   $0x40,0x4(%esp)
 80493e4:	00 
 80493e5:	8d 45 b4             	lea    -0x4c(%ebp),%eax
 80493e8:	89 04 24             	mov    %eax,(%esp)
 80493eb:	e8 d4 f5 ff ff       	call   80489c4 <gethostname@plt>
 80493f0:	85 c0                	test   %eax,%eax
 80493f2:	75 1b                	jne    804940f <initialize_bomb+0x52>
 80493f4:	a1 a0 b1 04 08       	mov    0x804b1a0,%eax
 80493f9:	bb 00 00 00 00       	mov    $0x0,%ebx
 80493fe:	8d 7d b4             	lea    -0x4c(%ebp),%edi
 8049401:	be a0 b1 04 08       	mov    $0x804b1a0,%esi
 8049406:	85 c0                	test   %eax,%eax
 8049408:	75 1d                	jne    8049427 <initialize_bomb+0x6a>
 804940a:	e9 8a 00 00 00       	jmp    8049499 <initialize_bomb+0xdc>
 804940f:	c7 04 24 24 a6 04 08 	movl   $0x804a624,(%esp)
 8049416:	e8 b9 f5 ff ff       	call   80489d4 <puts@plt>
 804941b:	c7 04 24 08 00 00 00 	movl   $0x8,(%esp)
 8049422:	e8 0d f6 ff ff       	call   8048a34 <exit@plt>
 8049427:	89 7c 24 04          	mov    %edi,0x4(%esp)
 804942b:	89 04 24             	mov    %eax,(%esp)
 804942e:	e8 41 f5 ff ff       	call   8048974 <strcasecmp@plt>
 8049433:	85 c0                	test   %eax,%eax
 8049435:	74 0c                	je     8049443 <initialize_bomb+0x86>
 8049437:	83 c3 01             	add    $0x1,%ebx
 804943a:	8b 04 9e             	mov    (%esi,%ebx,4),%eax
 804943d:	85 c0                	test   %eax,%eax
 804943f:	75 e6                	jne    8049427 <initialize_bomb+0x6a>
 8049441:	eb 56                	jmp    8049499 <initialize_bomb+0xdc>
 8049443:	8d 85 b4 df ff ff    	lea    -0x204c(%ebp),%eax
 8049449:	89 04 24             	mov    %eax,(%esp)
 804944c:	e8 6f 00 00 00       	call   80494c0 <init_driver>
 8049451:	85 c0                	test   %eax,%eax
 8049453:	79 22                	jns    8049477 <initialize_bomb+0xba>
 8049455:	8d 85 b4 df ff ff    	lea    -0x204c(%ebp),%eax
 804945b:	89 44 24 04          	mov    %eax,0x4(%esp)
 804945f:	c7 04 24 ea a6 04 08 	movl   $0x804a6ea,(%esp)
 8049466:	e8 f9 f4 ff ff       	call   8048964 <printf@plt>
 804946b:	c7 04 24 08 00 00 00 	movl   $0x8,(%esp)
 8049472:	e8 bd f5 ff ff       	call   8048a34 <exit@plt>
 8049477:	c7 44 24 04 8b 93 04 	movl   $0x804938b,0x4(%esp)
 804947e:	08 
 804947f:	c7 04 24 0e 00 00 00 	movl   $0xe,(%esp)
 8049486:	e8 f9 f3 ff ff       	call   8048884 <signal@plt>
 804948b:	c7 04 24 58 02 00 00 	movl   $0x258,(%esp)
 8049492:	e8 ad f4 ff ff       	call   8048944 <alarm@plt>
 8049497:	eb 18                	jmp    80494b1 <initialize_bomb+0xf4>
 8049499:	c7 04 24 5c a6 04 08 	movl   $0x804a65c,(%esp)
 80494a0:	e8 2f f5 ff ff       	call   80489d4 <puts@plt>
 80494a5:	c7 04 24 08 00 00 00 	movl   $0x8,(%esp)
 80494ac:	e8 83 f5 ff ff       	call   8048a34 <exit@plt>
 80494b1:	8b 5d f4             	mov    -0xc(%ebp),%ebx
 80494b4:	8b 75 f8             	mov    -0x8(%ebp),%esi
 80494b7:	8b 7d fc             	mov    -0x4(%ebp),%edi
 80494ba:	89 ec                	mov    %ebp,%esp
 80494bc:	5d                   	pop    %ebp
 80494bd:	c3                   	ret    
 80494be:	90                   	nop
 80494bf:	90                   	nop

080494c0 <init_driver>:
 80494c0:	55                   	push   %ebp
 80494c1:	89 e5                	mov    %esp,%ebp
 80494c3:	57                   	push   %edi
 80494c4:	56                   	push   %esi
 80494c5:	53                   	push   %ebx
 80494c6:	83 ec 1c             	sub    $0x1c,%esp
 80494c9:	8b 7d 08             	mov    0x8(%ebp),%edi
 80494cc:	c7 44 24 04 01 00 00 	movl   $0x1,0x4(%esp)
 80494d3:	00 
 80494d4:	c7 04 24 0d 00 00 00 	movl   $0xd,(%esp)
 80494db:	e8 a4 f3 ff ff       	call   8048884 <signal@plt>
 80494e0:	c7 44 24 04 01 00 00 	movl   $0x1,0x4(%esp)
 80494e7:	00 
 80494e8:	c7 04 24 1d 00 00 00 	movl   $0x1d,(%esp)
 80494ef:	e8 90 f3 ff ff       	call   8048884 <signal@plt>
 80494f4:	c7 44 24 04 01 00 00 	movl   $0x1,0x4(%esp)
 80494fb:	00 
 80494fc:	c7 04 24 1d 00 00 00 	movl   $0x1d,(%esp)
 8049503:	e8 7c f3 ff ff       	call   8048884 <signal@plt>
 8049508:	c7 44 24 08 00 00 00 	movl   $0x0,0x8(%esp)
 804950f:	00 
 8049510:	c7 44 24 04 01 00 00 	movl   $0x1,0x4(%esp)
 8049517:	00 
 8049518:	c7 04 24 02 00 00 00 	movl   $0x2,(%esp)
 804951f:	e8 e0 f3 ff ff       	call   8048904 <socket@plt>
 8049524:	89 c6                	mov    %eax,%esi
 8049526:	85 c0                	test   %eax,%eax
 8049528:	79 4e                	jns    8049578 <init_driver+0xb8>
 804952a:	c7 07 45 72 72 6f    	movl   $0x6f727245,(%edi)
 8049530:	c7 47 04 72 3a 20 43 	movl   $0x43203a72,0x4(%edi)
 8049537:	c7 47 08 6c 69 65 6e 	movl   $0x6e65696c,0x8(%edi)
 804953e:	c7 47 0c 74 20 75 6e 	movl   $0x6e752074,0xc(%edi)
 8049545:	c7 47 10 61 62 6c 65 	movl   $0x656c6261,0x10(%edi)
 804954c:	c7 47 14 20 74 6f 20 	movl   $0x206f7420,0x14(%edi)
 8049553:	c7 47 18 63 72 65 61 	movl   $0x61657263,0x18(%edi)
 804955a:	c7 47 1c 74 65 20 73 	movl   $0x73206574,0x1c(%edi)
 8049561:	c7 47 20 6f 63 6b 65 	movl   $0x656b636f,0x20(%edi)
 8049568:	66 c7 47 24 74 00    	movw   $0x74,0x24(%edi)
 804956e:	b8 ff ff ff ff       	mov    $0xffffffff,%eax
 8049573:	e9 3d 01 00 00       	jmp    80496b5 <init_driver+0x1f5>
 8049578:	c7 04 24 38 a9 04 08 	movl   $0x804a938,(%esp)
 804957f:	e8 90 f4 ff ff       	call   8048a14 <gethostbyname@plt>
 8049584:	89 c2                	mov    %eax,%edx
 8049586:	85 c0                	test   %eax,%eax
 8049588:	75 68                	jne    80495f2 <init_driver+0x132>
 804958a:	c7 07 45 72 72 6f    	movl   $0x6f727245,(%edi)
 8049590:	c7 47 04 72 3a 20 44 	movl   $0x44203a72,0x4(%edi)
 8049597:	c7 47 08 4e 53 20 69 	movl   $0x6920534e,0x8(%edi)
 804959e:	c7 47 0c 73 20 75 6e 	movl   $0x6e752073,0xc(%edi)
 80495a5:	c7 47 10 61 62 6c 65 	movl   $0x656c6261,0x10(%edi)
 80495ac:	c7 47 14 20 74 6f 20 	movl   $0x206f7420,0x14(%edi)
 80495b3:	c7 47 18 72 65 73 6f 	movl   $0x6f736572,0x18(%edi)
 80495ba:	c7 47 1c 6c 76 65 20 	movl   $0x2065766c,0x1c(%edi)
 80495c1:	c7 47 20 73 65 72 76 	movl   $0x76726573,0x20(%edi)
 80495c8:	c7 47 24 65 72 20 61 	movl   $0x61207265,0x24(%edi)
 80495cf:	c7 47 28 64 64 72 65 	movl   $0x65726464,0x28(%edi)
 80495d6:	66 c7 47 2c 73 73    	movw   $0x7373,0x2c(%edi)
 80495dc:	c6 47 2e 00          	movb   $0x0,0x2e(%edi)
 80495e0:	89 34 24             	mov    %esi,(%esp)
 80495e3:	e8 ac f3 ff ff       	call   8048994 <close@plt>
 80495e8:	b8 ff ff ff ff       	mov    $0xffffffff,%eax
 80495ed:	e9 c3 00 00 00       	jmp    80496b5 <init_driver+0x1f5>
 80495f2:	8d 5d e4             	lea    -0x1c(%ebp),%ebx
 80495f5:	c7 03 00 00 00 00    	movl   $0x0,(%ebx)
 80495fb:	c7 43 04 00 00 00 00 	movl   $0x0,0x4(%ebx)
 8049602:	c7 43 08 00 00 00 00 	movl   $0x0,0x8(%ebx)
 8049609:	c7 43 0c 00 00 00 00 	movl   $0x0,0xc(%ebx)
 8049610:	66 c7 45 e4 02 00    	movw   $0x2,-0x1c(%ebp)
 8049616:	8b 40 0c             	mov    0xc(%eax),%eax
 8049619:	89 44 24 08          	mov    %eax,0x8(%esp)
 804961d:	8d 45 e8             	lea    -0x18(%ebp),%eax
 8049620:	89 44 24 04          	mov    %eax,0x4(%esp)
 8049624:	8b 42 10             	mov    0x10(%edx),%eax
 8049627:	8b 00                	mov    (%eax),%eax
 8049629:	89 04 24             	mov    %eax,(%esp)
 804962c:	e8 e3 f2 ff ff       	call   8048914 <bcopy@plt>
 8049631:	66 c7 45 e6 00 50    	movw   $0x5000,-0x1a(%ebp)
 8049637:	c7 44 24 08 10 00 00 	movl   $0x10,0x8(%esp)
 804963e:	00 
 804963f:	89 5c 24 04          	mov    %ebx,0x4(%esp)
 8049643:	89 34 24             	mov    %esi,(%esp)
 8049646:	e8 09 f2 ff ff       	call   8048854 <connect@plt>
 804964b:	85 c0                	test   %eax,%eax
 804964d:	79 50                	jns    804969f <init_driver+0x1df>
 804964f:	c7 07 45 72 72 6f    	movl   $0x6f727245,(%edi)
 8049655:	c7 47 04 72 3a 20 55 	movl   $0x55203a72,0x4(%edi)
 804965c:	c7 47 08 6e 61 62 6c 	movl   $0x6c62616e,0x8(%edi)
 8049663:	c7 47 0c 65 20 74 6f 	movl   $0x6f742065,0xc(%edi)
 804966a:	c7 47 10 20 63 6f 6e 	movl   $0x6e6f6320,0x10(%edi)
 8049671:	c7 47 14 6e 65 63 74 	movl   $0x7463656e,0x14(%edi)
 8049678:	c7 47 18 20 74 6f 20 	movl   $0x206f7420,0x18(%edi)
 804967f:	c7 47 1c 73 65 72 76 	movl   $0x76726573,0x1c(%edi)
 8049686:	66 c7 47 20 65 72    	movw   $0x7265,0x20(%edi)
 804968c:	c6 47 22 00          	movb   $0x0,0x22(%edi)
 8049690:	89 34 24             	mov    %esi,(%esp)
 8049693:	e8 fc f2 ff ff       	call   8048994 <close@plt>
 8049698:	b8 ff ff ff ff       	mov    $0xffffffff,%eax
 804969d:	eb 16                	jmp    80496b5 <init_driver+0x1f5>
 804969f:	89 34 24             	mov    %esi,(%esp)
 80496a2:	e8 ed f2 ff ff       	call   8048994 <close@plt>
 80496a7:	66 c7 07 4f 4b       	movw   $0x4b4f,(%edi)
 80496ac:	c6 47 02 00          	movb   $0x0,0x2(%edi)
 80496b0:	b8 00 00 00 00       	mov    $0x0,%eax
 80496b5:	83 c4 1c             	add    $0x1c,%esp
 80496b8:	5b                   	pop    %ebx
 80496b9:	5e                   	pop    %esi
 80496ba:	5f                   	pop    %edi
 80496bb:	5d                   	pop    %ebp
 80496bc:	c3                   	ret    

080496bd <init_timeout>:
 80496bd:	55                   	push   %ebp
 80496be:	89 e5                	mov    %esp,%ebp
 80496c0:	53                   	push   %ebx
 80496c1:	83 ec 14             	sub    $0x14,%esp
 80496c4:	8b 5d 08             	mov    0x8(%ebp),%ebx
 80496c7:	85 db                	test   %ebx,%ebx
 80496c9:	74 25                	je     80496f0 <init_timeout+0x33>
 80496cb:	c7 44 24 04 73 a0 04 	movl   $0x804a073,0x4(%esp)
 80496d2:	08 
 80496d3:	c7 04 24 0e 00 00 00 	movl   $0xe,(%esp)
 80496da:	e8 a5 f1 ff ff       	call   8048884 <signal@plt>
 80496df:	89 d8                	mov    %ebx,%eax
 80496e1:	c1 f8 1f             	sar    $0x1f,%eax
 80496e4:	f7 d0                	not    %eax
 80496e6:	21 d8                	and    %ebx,%eax
 80496e8:	89 04 24             	mov    %eax,(%esp)
 80496eb:	e8 54 f2 ff ff       	call   8048944 <alarm@plt>
 80496f0:	83 c4 14             	add    $0x14,%esp
 80496f3:	5b                   	pop    %ebx
 80496f4:	5d                   	pop    %ebp
 80496f5:	c3                   	ret    

080496f6 <rio_readlineb>:
 80496f6:	55                   	push   %ebp
 80496f7:	89 e5                	mov    %esp,%ebp
 80496f9:	57                   	push   %edi
 80496fa:	56                   	push   %esi
 80496fb:	53                   	push   %ebx
 80496fc:	83 ec 2c             	sub    $0x2c,%esp
 80496ff:	89 c3                	mov    %eax,%ebx
 8049701:	89 4d dc             	mov    %ecx,-0x24(%ebp)
 8049704:	89 55 e0             	mov    %edx,-0x20(%ebp)
 8049707:	8d 70 0c             	lea    0xc(%eax),%esi
 804970a:	bf 01 00 00 00       	mov    $0x1,%edi
 804970f:	83 f9 01             	cmp    $0x1,%ecx
 8049712:	77 37                	ja     804974b <rio_readlineb+0x55>
 8049714:	eb 5c                	jmp    8049772 <rio_readlineb+0x7c>
 8049716:	c7 44 24 08 00 20 00 	movl   $0x2000,0x8(%esp)
 804971d:	00 
 804971e:	89 74 24 04          	mov    %esi,0x4(%esp)
 8049722:	8b 03                	mov    (%ebx),%eax
 8049724:	89 04 24             	mov    %eax,(%esp)
 8049727:	e8 c8 f1 ff ff       	call   80488f4 <read@plt>
 804972c:	89 43 04             	mov    %eax,0x4(%ebx)
 804972f:	85 c0                	test   %eax,%eax
 8049731:	79 11                	jns    8049744 <rio_readlineb+0x4e>
 8049733:	e8 ec f0 ff ff       	call   8048824 <__errno_location@plt>
 8049738:	83 38 04             	cmpl   $0x4,(%eax)
 804973b:	74 0e                	je     804974b <rio_readlineb+0x55>
 804973d:	ba ff ff ff ff       	mov    $0xffffffff,%edx
 8049742:	eb 48                	jmp    804978c <rio_readlineb+0x96>
 8049744:	85 c0                	test   %eax,%eax
 8049746:	74 3f                	je     8049787 <rio_readlineb+0x91>
 8049748:	89 73 08             	mov    %esi,0x8(%ebx)
 804974b:	8b 43 04             	mov    0x4(%ebx),%eax
 804974e:	85 c0                	test   %eax,%eax
 8049750:	7e c4                	jle    8049716 <rio_readlineb+0x20>
 8049752:	85 c0                	test   %eax,%eax
 8049754:	75 43                	jne    8049799 <rio_readlineb+0xa3>
 8049756:	89 f9                	mov    %edi,%ecx
 8049758:	b8 00 00 00 00       	mov    $0x0,%eax
 804975d:	83 f9 01             	cmp    $0x1,%ecx
 8049760:	75 15                	jne    8049777 <rio_readlineb+0x81>
 8049762:	eb 1b                	jmp    804977f <rio_readlineb+0x89>
 8049764:	83 c7 01             	add    $0x1,%edi
 8049767:	39 7d dc             	cmp    %edi,-0x24(%ebp)
 804976a:	77 df                	ja     804974b <rio_readlineb+0x55>
 804976c:	8d 74 26 00          	lea    0x0(%esi,%eiz,1),%esi
 8049770:	eb 05                	jmp    8049777 <rio_readlineb+0x81>
 8049772:	bf 01 00 00 00       	mov    $0x1,%edi
 8049777:	8b 45 e0             	mov    -0x20(%ebp),%eax
 804977a:	c6 00 00             	movb   $0x0,(%eax)
 804977d:	89 f8                	mov    %edi,%eax
 804977f:	83 c4 2c             	add    $0x2c,%esp
 8049782:	5b                   	pop    %ebx
 8049783:	5e                   	pop    %esi
 8049784:	5f                   	pop    %edi
 8049785:	5d                   	pop    %ebp
 8049786:	c3                   	ret    
 8049787:	ba 00 00 00 00       	mov    $0x0,%edx
 804978c:	89 f9                	mov    %edi,%ecx
 804978e:	b8 ff ff ff ff       	mov    $0xffffffff,%eax
 8049793:	85 d2                	test   %edx,%edx
 8049795:	74 c1                	je     8049758 <rio_readlineb+0x62>
 8049797:	eb e6                	jmp    804977f <rio_readlineb+0x89>
 8049799:	8b 43 08             	mov    0x8(%ebx),%eax
 804979c:	0f b6 00             	movzbl (%eax),%eax
 804979f:	88 45 f3             	mov    %al,-0xd(%ebp)
 80497a2:	83 43 08 01          	addl   $0x1,0x8(%ebx)
 80497a6:	83 6b 04 01          	subl   $0x1,0x4(%ebx)
 80497aa:	8b 55 e0             	mov    -0x20(%ebp),%edx
 80497ad:	88 02                	mov    %al,(%edx)
 80497af:	83 c2 01             	add    $0x1,%edx
 80497b2:	89 55 e0             	mov    %edx,-0x20(%ebp)
 80497b5:	80 7d f3 0a          	cmpb   $0xa,-0xd(%ebp)
 80497b9:	75 a9                	jne    8049764 <rio_readlineb+0x6e>
 80497bb:	eb ba                	jmp    8049777 <rio_readlineb+0x81>

080497bd <submitr>:
 80497bd:	55                   	push   %ebp
 80497be:	89 e5                	mov    %esp,%ebp
 80497c0:	57                   	push   %edi
 80497c1:	56                   	push   %esi
 80497c2:	53                   	push   %ebx
 80497c3:	81 ec 5c a0 00 00    	sub    $0xa05c,%esp
 80497c9:	c7 85 d4 7f ff ff 00 	movl   $0x0,-0x802c(%ebp)
 80497d0:	00 00 00 
 80497d3:	c7 44 24 08 00 00 00 	movl   $0x0,0x8(%esp)
 80497da:	00 
 80497db:	c7 44 24 04 01 00 00 	movl   $0x1,0x4(%esp)
 80497e2:	00 
 80497e3:	c7 04 24 02 00 00 00 	movl   $0x2,(%esp)
 80497ea:	e8 15 f1 ff ff       	call   8048904 <socket@plt>
 80497ef:	89 85 c0 5f ff ff    	mov    %eax,-0xa040(%ebp)
 80497f5:	85 c0                	test   %eax,%eax
 80497f7:	79 51                	jns    804984a <submitr+0x8d>
 80497f9:	8b 45 20             	mov    0x20(%ebp),%eax
 80497fc:	c7 00 45 72 72 6f    	movl   $0x6f727245,(%eax)
 8049802:	c7 40 04 72 3a 20 43 	movl   $0x43203a72,0x4(%eax)
 8049809:	c7 40 08 6c 69 65 6e 	movl   $0x6e65696c,0x8(%eax)
 8049810:	c7 40 0c 74 20 75 6e 	movl   $0x6e752074,0xc(%eax)
 8049817:	c7 40 10 61 62 6c 65 	movl   $0x656c6261,0x10(%eax)
 804981e:	c7 40 14 20 74 6f 20 	movl   $0x206f7420,0x14(%eax)
 8049825:	c7 40 18 63 72 65 61 	movl   $0x61657263,0x18(%eax)
 804982c:	c7 40 1c 74 65 20 73 	movl   $0x73206574,0x1c(%eax)
 8049833:	c7 40 20 6f 63 6b 65 	movl   $0x656b636f,0x20(%eax)
 804983a:	66 c7 40 24 74 00    	movw   $0x74,0x24(%eax)
 8049840:	b8 ff ff ff ff       	mov    $0xffffffff,%eax
 8049845:	e9 34 07 00 00       	jmp    8049f7e <submitr+0x7c1>
 804984a:	8b 55 08             	mov    0x8(%ebp),%edx
 804984d:	89 14 24             	mov    %edx,(%esp)
 8049850:	e8 bf f1 ff ff       	call   8048a14 <gethostbyname@plt>
 8049855:	89 c2                	mov    %eax,%edx
 8049857:	85 c0                	test   %eax,%eax
 8049859:	75 7f                	jne    80498da <submitr+0x11d>
 804985b:	8b 4d 20             	mov    0x20(%ebp),%ecx
 804985e:	c7 01 45 72 72 6f    	movl   $0x6f727245,(%ecx)
 8049864:	c7 41 04 72 3a 20 44 	movl   $0x44203a72,0x4(%ecx)
 804986b:	c7 41 08 4e 53 20 69 	movl   $0x6920534e,0x8(%ecx)
 8049872:	c7 41 0c 73 20 75 6e 	movl   $0x6e752073,0xc(%ecx)
 8049879:	c7 41 10 61 62 6c 65 	movl   $0x656c6261,0x10(%ecx)
 8049880:	c7 41 14 20 74 6f 20 	movl   $0x206f7420,0x14(%ecx)
 8049887:	c7 41 18 72 65 73 6f 	movl   $0x6f736572,0x18(%ecx)
 804988e:	c7 41 1c 6c 76 65 20 	movl   $0x2065766c,0x1c(%ecx)
 8049895:	c7 41 20 41 75 74 6f 	movl   $0x6f747541,0x20(%ecx)
 804989c:	c7 41 24 6c 61 62 20 	movl   $0x2062616c,0x24(%ecx)
 80498a3:	c7 41 28 73 65 72 76 	movl   $0x76726573,0x28(%ecx)
 80498aa:	c7 41 2c 65 72 20 61 	movl   $0x61207265,0x2c(%ecx)
 80498b1:	c7 41 30 64 64 72 65 	movl   $0x65726464,0x30(%ecx)
 80498b8:	66 c7 41 34 73 73    	movw   $0x7373,0x34(%ecx)
 80498be:	c6 41 36 00          	movb   $0x0,0x36(%ecx)
 80498c2:	8b 85 c0 5f ff ff    	mov    -0xa040(%ebp),%eax
 80498c8:	89 04 24             	mov    %eax,(%esp)
 80498cb:	e8 c4 f0 ff ff       	call   8048994 <close@plt>
 80498d0:	b8 ff ff ff ff       	mov    $0xffffffff,%eax
 80498d5:	e9 a4 06 00 00       	jmp    8049f7e <submitr+0x7c1>
 80498da:	8d 5d e4             	lea    -0x1c(%ebp),%ebx
 80498dd:	c7 03 00 00 00 00    	movl   $0x0,(%ebx)
 80498e3:	c7 43 04 00 00 00 00 	movl   $0x0,0x4(%ebx)
 80498ea:	c7 43 08 00 00 00 00 	movl   $0x0,0x8(%ebx)
 80498f1:	c7 43 0c 00 00 00 00 	movl   $0x0,0xc(%ebx)
 80498f8:	66 c7 45 e4 02 00    	movw   $0x2,-0x1c(%ebp)
 80498fe:	8b 40 0c             	mov    0xc(%eax),%eax
 8049901:	89 44 24 08          	mov    %eax,0x8(%esp)
 8049905:	8d 45 e8             	lea    -0x18(%ebp),%eax
 8049908:	89 44 24 04          	mov    %eax,0x4(%esp)
 804990c:	8b 42 10             	mov    0x10(%edx),%eax
 804990f:	8b 00                	mov    (%eax),%eax
 8049911:	89 04 24             	mov    %eax,(%esp)
 8049914:	e8 fb ef ff ff       	call   8048914 <bcopy@plt>
 8049919:	0f b7 45 0c          	movzwl 0xc(%ebp),%eax
 804991d:	66 c1 c8 08          	ror    $0x8,%ax
 8049921:	66 89 45 e6          	mov    %ax,-0x1a(%ebp)
 8049925:	c7 44 24 08 10 00 00 	movl   $0x10,0x8(%esp)
 804992c:	00 
 804992d:	89 5c 24 04          	mov    %ebx,0x4(%esp)
 8049931:	8b 95 c0 5f ff ff    	mov    -0xa040(%ebp),%edx
 8049937:	89 14 24             	mov    %edx,(%esp)
 804993a:	e8 15 ef ff ff       	call   8048854 <connect@plt>
 804993f:	85 c0                	test   %eax,%eax
 8049941:	79 71                	jns    80499b4 <submitr+0x1f7>
 8049943:	8b 4d 20             	mov    0x20(%ebp),%ecx
 8049946:	c7 01 45 72 72 6f    	movl   $0x6f727245,(%ecx)
 804994c:	c7 41 04 72 3a 20 55 	movl   $0x55203a72,0x4(%ecx)
 8049953:	c7 41 08 6e 61 62 6c 	movl   $0x6c62616e,0x8(%ecx)
 804995a:	c7 41 0c 65 20 74 6f 	movl   $0x6f742065,0xc(%ecx)
 8049961:	c7 41 10 20 63 6f 6e 	movl   $0x6e6f6320,0x10(%ecx)
 8049968:	c7 41 14 6e 65 63 74 	movl   $0x7463656e,0x14(%ecx)
 804996f:	c7 41 18 20 74 6f 20 	movl   $0x206f7420,0x18(%ecx)
 8049976:	c7 41 1c 74 68 65 20 	movl   $0x20656874,0x1c(%ecx)
 804997d:	c7 41 20 41 75 74 6f 	movl   $0x6f747541,0x20(%ecx)
 8049984:	c7 41 24 6c 61 62 20 	movl   $0x2062616c,0x24(%ecx)
 804998b:	c7 41 28 73 65 72 76 	movl   $0x76726573,0x28(%ecx)
 8049992:	66 c7 41 2c 65 72    	movw   $0x7265,0x2c(%ecx)
 8049998:	c6 41 2e 00          	movb   $0x0,0x2e(%ecx)
 804999c:	8b 85 c0 5f ff ff    	mov    -0xa040(%ebp),%eax
 80499a2:	89 04 24             	mov    %eax,(%esp)
 80499a5:	e8 ea ef ff ff       	call   8048994 <close@plt>
 80499aa:	b8 ff ff ff ff       	mov    $0xffffffff,%eax
 80499af:	e9 ca 05 00 00       	jmp    8049f7e <submitr+0x7c1>
 80499b4:	bb ff ff ff ff       	mov    $0xffffffff,%ebx
 80499b9:	8b 7d 1c             	mov    0x1c(%ebp),%edi
 80499bc:	ba 00 00 00 00       	mov    $0x0,%edx
 80499c1:	89 d9                	mov    %ebx,%ecx
 80499c3:	89 d0                	mov    %edx,%eax
 80499c5:	f2 ae                	repnz scas %es:(%edi),%al
 80499c7:	89 ce                	mov    %ecx,%esi
 80499c9:	f7 d6                	not    %esi
 80499cb:	89 b5 b8 5f ff ff    	mov    %esi,-0xa048(%ebp)
 80499d1:	8b 7d 10             	mov    0x10(%ebp),%edi
 80499d4:	89 d9                	mov    %ebx,%ecx
 80499d6:	f2 ae                	repnz scas %es:(%edi),%al
 80499d8:	89 ce                	mov    %ecx,%esi
 80499da:	8b 7d 14             	mov    0x14(%ebp),%edi
 80499dd:	89 d9                	mov    %ebx,%ecx
 80499df:	f2 ae                	repnz scas %es:(%edi),%al
 80499e1:	f7 d1                	not    %ecx
 80499e3:	89 8d b4 5f ff ff    	mov    %ecx,-0xa04c(%ebp)
 80499e9:	8b 7d 18             	mov    0x18(%ebp),%edi
 80499ec:	89 d9                	mov    %ebx,%ecx
 80499ee:	f2 ae                	repnz scas %es:(%edi),%al
 80499f0:	89 ca                	mov    %ecx,%edx
 80499f2:	8b 8d b4 5f ff ff    	mov    -0xa04c(%ebp),%ecx
 80499f8:	29 f1                	sub    %esi,%ecx
 80499fa:	29 d1                	sub    %edx,%ecx
 80499fc:	8b 95 b8 5f ff ff    	mov    -0xa048(%ebp),%edx
 8049a02:	8d 44 52 fd          	lea    -0x3(%edx,%edx,2),%eax
 8049a06:	8d 4c 01 7b          	lea    0x7b(%ecx,%eax,1),%ecx
 8049a0a:	81 f9 00 20 00 00    	cmp    $0x2000,%ecx
 8049a10:	76 7c                	jbe    8049a8e <submitr+0x2d1>
 8049a12:	8b 4d 20             	mov    0x20(%ebp),%ecx
 8049a15:	c7 01 45 72 72 6f    	movl   $0x6f727245,(%ecx)
 8049a1b:	c7 41 04 72 3a 20 52 	movl   $0x52203a72,0x4(%ecx)
 8049a22:	c7 41 08 65 73 75 6c 	movl   $0x6c757365,0x8(%ecx)
 8049a29:	c7 41 0c 74 20 73 74 	movl   $0x74732074,0xc(%ecx)
 8049a30:	c7 41 10 72 69 6e 67 	movl   $0x676e6972,0x10(%ecx)
 8049a37:	c7 41 14 20 74 6f 6f 	movl   $0x6f6f7420,0x14(%ecx)
 8049a3e:	c7 41 18 20 6c 61 72 	movl   $0x72616c20,0x18(%ecx)
 8049a45:	c7 41 1c 67 65 2e 20 	movl   $0x202e6567,0x1c(%ecx)
 8049a4c:	c7 41 20 49 6e 63 72 	movl   $0x72636e49,0x20(%ecx)
 8049a53:	c7 41 24 65 61 73 65 	movl   $0x65736165,0x24(%ecx)
 8049a5a:	c7 41 28 20 53 55 42 	movl   $0x42555320,0x28(%ecx)
 8049a61:	c7 41 2c 4d 49 54 52 	movl   $0x5254494d,0x2c(%ecx)
 8049a68:	c7 41 30 5f 4d 41 58 	movl   $0x58414d5f,0x30(%ecx)
 8049a6f:	c7 41 34 42 55 46 00 	movl   $0x465542,0x34(%ecx)
 8049a76:	8b 85 c0 5f ff ff    	mov    -0xa040(%ebp),%eax
 8049a7c:	89 04 24             	mov    %eax,(%esp)
 8049a7f:	e8 10 ef ff ff       	call   8048994 <close@plt>
 8049a84:	b8 ff ff ff ff       	mov    $0xffffffff,%eax
 8049a89:	e9 f0 04 00 00       	jmp    8049f7e <submitr+0x7c1>
 8049a8e:	8d bd d8 9f ff ff    	lea    -0x6028(%ebp),%edi
 8049a94:	b9 00 08 00 00       	mov    $0x800,%ecx
 8049a99:	b8 00 00 00 00       	mov    $0x0,%eax
 8049a9e:	f3 ab                	rep stos %eax,%es:(%edi)
 8049aa0:	8b 7d 1c             	mov    0x1c(%ebp),%edi
 8049aa3:	b9 ff ff ff ff       	mov    $0xffffffff,%ecx
 8049aa8:	f2 ae                	repnz scas %es:(%edi),%al
 8049aaa:	f7 d1                	not    %ecx
 8049aac:	89 cf                	mov    %ecx,%edi
 8049aae:	83 ef 01             	sub    $0x1,%edi
 8049ab1:	0f 84 d2 04 00 00    	je     8049f89 <submitr+0x7cc>
 8049ab7:	8d 9d d8 9f ff ff    	lea    -0x6028(%ebp),%ebx
 8049abd:	be 00 00 00 00       	mov    $0x0,%esi
 8049ac2:	8b 4d 1c             	mov    0x1c(%ebp),%ecx
 8049ac5:	0f b6 14 31          	movzbl (%ecx,%esi,1),%edx
 8049ac9:	80 fa 2a             	cmp    $0x2a,%dl
 8049acc:	74 29                	je     8049af7 <submitr+0x33a>
 8049ace:	80 fa 2d             	cmp    $0x2d,%dl
 8049ad1:	74 24                	je     8049af7 <submitr+0x33a>
 8049ad3:	80 fa 2e             	cmp    $0x2e,%dl
 8049ad6:	74 1f                	je     8049af7 <submitr+0x33a>
 8049ad8:	80 fa 5f             	cmp    $0x5f,%dl
 8049adb:	90                   	nop
 8049adc:	8d 74 26 00          	lea    0x0(%esi,%eiz,1),%esi
 8049ae0:	74 15                	je     8049af7 <submitr+0x33a>
 8049ae2:	8d 42 d0             	lea    -0x30(%edx),%eax
 8049ae5:	3c 09                	cmp    $0x9,%al
 8049ae7:	76 0e                	jbe    8049af7 <submitr+0x33a>
 8049ae9:	8d 42 bf             	lea    -0x41(%edx),%eax
 8049aec:	3c 19                	cmp    $0x19,%al
 8049aee:	76 07                	jbe    8049af7 <submitr+0x33a>
 8049af0:	8d 42 9f             	lea    -0x61(%edx),%eax
 8049af3:	3c 19                	cmp    $0x19,%al
 8049af5:	77 07                	ja     8049afe <submitr+0x341>
 8049af7:	88 13                	mov    %dl,(%ebx)
 8049af9:	83 c3 01             	add    $0x1,%ebx
 8049afc:	eb 56                	jmp    8049b54 <submitr+0x397>
 8049afe:	80 fa 20             	cmp    $0x20,%dl
 8049b01:	75 08                	jne    8049b0b <submitr+0x34e>
 8049b03:	c6 03 2b             	movb   $0x2b,(%ebx)
 8049b06:	83 c3 01             	add    $0x1,%ebx
 8049b09:	eb 49                	jmp    8049b54 <submitr+0x397>
 8049b0b:	8d 42 e0             	lea    -0x20(%edx),%eax
 8049b0e:	3c 5f                	cmp    $0x5f,%al
 8049b10:	76 05                	jbe    8049b17 <submitr+0x35a>
 8049b12:	80 fa 09             	cmp    $0x9,%dl
 8049b15:	75 4d                	jne    8049b64 <submitr+0x3a7>
 8049b17:	0f b6 c2             	movzbl %dl,%eax
 8049b1a:	89 44 24 08          	mov    %eax,0x8(%esp)
 8049b1e:	c7 44 24 04 4c aa 04 	movl   $0x804aa4c,0x4(%esp)
 8049b25:	08 
 8049b26:	8d 85 cc 5f ff ff    	lea    -0xa034(%ebp),%eax
 8049b2c:	89 04 24             	mov    %eax,(%esp)
 8049b2f:	e8 00 ed ff ff       	call   8048834 <sprintf@plt>
 8049b34:	0f b6 85 cc 5f ff ff 	movzbl -0xa034(%ebp),%eax
 8049b3b:	88 03                	mov    %al,(%ebx)
 8049b3d:	0f b6 85 cd 5f ff ff 	movzbl -0xa033(%ebp),%eax
 8049b44:	88 43 01             	mov    %al,0x1(%ebx)
 8049b47:	0f b6 85 ce 5f ff ff 	movzbl -0xa032(%ebp),%eax
 8049b4e:	88 43 02             	mov    %al,0x2(%ebx)
 8049b51:	83 c3 03             	add    $0x3,%ebx
 8049b54:	83 c6 01             	add    $0x1,%esi
 8049b57:	39 fe                	cmp    %edi,%esi
 8049b59:	0f 85 63 ff ff ff    	jne    8049ac2 <submitr+0x305>
 8049b5f:	e9 25 04 00 00       	jmp    8049f89 <submitr+0x7cc>
 8049b64:	be 58 a9 04 08       	mov    $0x804a958,%esi
 8049b69:	b9 10 00 00 00       	mov    $0x10,%ecx
 8049b6e:	8b 7d 20             	mov    0x20(%ebp),%edi
 8049b71:	f3 a5                	rep movsl %ds:(%esi),%es:(%edi)
 8049b73:	0f b7 06             	movzwl (%esi),%eax
 8049b76:	66 89 07             	mov    %ax,(%edi)
 8049b79:	0f b6 05 9a a9 04 08 	movzbl 0x804a99a,%eax
 8049b80:	88 47 02             	mov    %al,0x2(%edi)
 8049b83:	8b 95 c0 5f ff ff    	mov    -0xa040(%ebp),%edx
 8049b89:	89 14 24             	mov    %edx,(%esp)
 8049b8c:	e8 03 ee ff ff       	call   8048994 <close@plt>
 8049b91:	b8 ff ff ff ff       	mov    $0xffffffff,%eax
 8049b96:	e9 e3 03 00 00       	jmp    8049f7e <submitr+0x7c1>
 8049b9b:	01 c6                	add    %eax,%esi
 8049b9d:	89 5c 24 08          	mov    %ebx,0x8(%esp)
 8049ba1:	89 74 24 04          	mov    %esi,0x4(%esp)
 8049ba5:	8b 8d c0 5f ff ff    	mov    -0xa040(%ebp),%ecx
 8049bab:	89 0c 24             	mov    %ecx,(%esp)
 8049bae:	e8 01 ed ff ff       	call   80488b4 <write@plt>
 8049bb3:	85 c0                	test   %eax,%eax
 8049bb5:	7f 10                	jg     8049bc7 <submitr+0x40a>
 8049bb7:	e8 68 ec ff ff       	call   8048824 <__errno_location@plt>
 8049bbc:	83 38 04             	cmpl   $0x4,(%eax)
 8049bbf:	90                   	nop
 8049bc0:	75 10                	jne    8049bd2 <submitr+0x415>
 8049bc2:	b8 00 00 00 00       	mov    $0x0,%eax
 8049bc7:	29 c3                	sub    %eax,%ebx
 8049bc9:	75 d0                	jne    8049b9b <submitr+0x3de>
 8049bcb:	85 ff                	test   %edi,%edi
 8049bcd:	8d 76 00             	lea    0x0(%esi),%esi
 8049bd0:	79 75                	jns    8049c47 <submitr+0x48a>
 8049bd2:	8b 45 20             	mov    0x20(%ebp),%eax
 8049bd5:	c7 00 45 72 72 6f    	movl   $0x6f727245,(%eax)
 8049bdb:	c7 40 04 72 3a 20 43 	movl   $0x43203a72,0x4(%eax)
 8049be2:	c7 40 08 6c 69 65 6e 	movl   $0x6e65696c,0x8(%eax)
 8049be9:	c7 40 0c 74 20 75 6e 	movl   $0x6e752074,0xc(%eax)
 8049bf0:	c7 40 10 61 62 6c 65 	movl   $0x656c6261,0x10(%eax)
 8049bf7:	c7 40 14 20 74 6f 20 	movl   $0x206f7420,0x14(%eax)
 8049bfe:	c7 40 18 77 72 69 74 	movl   $0x74697277,0x18(%eax)
 8049c05:	c7 40 1c 65 20 74 6f 	movl   $0x6f742065,0x1c(%eax)
 8049c0c:	c7 40 20 20 74 68 65 	movl   $0x65687420,0x20(%eax)
 8049c13:	c7 40 24 20 41 75 74 	movl   $0x74754120,0x24(%eax)
 8049c1a:	c7 40 28 6f 6c 61 62 	movl   $0x62616c6f,0x28(%eax)
 8049c21:	c7 40 2c 20 73 65 72 	movl   $0x72657320,0x2c(%eax)
 8049c28:	c7 40 30 76 65 72 00 	movl   $0x726576,0x30(%eax)
 8049c2f:	8b 95 c0 5f ff ff    	mov    -0xa040(%ebp),%edx
 8049c35:	89 14 24             	mov    %edx,(%esp)
 8049c38:	e8 57 ed ff ff       	call   8048994 <close@plt>
 8049c3d:	b8 ff ff ff ff       	mov    $0xffffffff,%eax
 8049c42:	e9 37 03 00 00       	jmp    8049f7e <submitr+0x7c1>
 8049c47:	8b 8d c0 5f ff ff    	mov    -0xa040(%ebp),%ecx
 8049c4d:	89 8d d8 df ff ff    	mov    %ecx,-0x2028(%ebp)
 8049c53:	c7 85 dc df ff ff 00 	movl   $0x0,-0x2024(%ebp)
 8049c5a:	00 00 00 
 8049c5d:	8d 85 d8 df ff ff    	lea    -0x2028(%ebp),%eax
 8049c63:	8d 95 e4 df ff ff    	lea    -0x201c(%ebp),%edx
 8049c69:	89 95 e0 df ff ff    	mov    %edx,-0x2020(%ebp)
 8049c6f:	8d 95 d8 bf ff ff    	lea    -0x4028(%ebp),%edx
 8049c75:	b9 00 20 00 00       	mov    $0x2000,%ecx
 8049c7a:	e8 77 fa ff ff       	call   80496f6 <rio_readlineb>
 8049c7f:	85 c0                	test   %eax,%eax
 8049c81:	0f 8f 89 00 00 00    	jg     8049d10 <submitr+0x553>
 8049c87:	8b 45 20             	mov    0x20(%ebp),%eax
 8049c8a:	c7 00 45 72 72 6f    	movl   $0x6f727245,(%eax)
 8049c90:	c7 40 04 72 3a 20 43 	movl   $0x43203a72,0x4(%eax)
 8049c97:	c7 40 08 6c 69 65 6e 	movl   $0x6e65696c,0x8(%eax)
 8049c9e:	c7 40 0c 74 20 75 6e 	movl   $0x6e752074,0xc(%eax)
 8049ca5:	c7 40 10 61 62 6c 65 	movl   $0x656c6261,0x10(%eax)
 8049cac:	c7 40 14 20 74 6f 20 	movl   $0x206f7420,0x14(%eax)
 8049cb3:	c7 40 18 72 65 61 64 	movl   $0x64616572,0x18(%eax)
 8049cba:	c7 40 1c 20 66 69 72 	movl   $0x72696620,0x1c(%eax)
 8049cc1:	c7 40 20 73 74 20 68 	movl   $0x68207473,0x20(%eax)
 8049cc8:	c7 40 24 65 61 64 65 	movl   $0x65646165,0x24(%eax)
 8049ccf:	c7 40 28 72 20 66 72 	movl   $0x72662072,0x28(%eax)
 8049cd6:	c7 40 2c 6f 6d 20 41 	movl   $0x41206d6f,0x2c(%eax)
 8049cdd:	c7 40 30 75 74 6f 6c 	movl   $0x6c6f7475,0x30(%eax)
 8049ce4:	c7 40 34 61 62 20 73 	movl   $0x73206261,0x34(%eax)
 8049ceb:	c7 40 38 65 72 76 65 	movl   $0x65767265,0x38(%eax)
 8049cf2:	66 c7 40 3c 72 00    	movw   $0x72,0x3c(%eax)
 8049cf8:	8b 95 c0 5f ff ff    	mov    -0xa040(%ebp),%edx
 8049cfe:	89 14 24             	mov    %edx,(%esp)
 8049d01:	e8 8e ec ff ff       	call   8048994 <close@plt>
 8049d06:	b8 ff ff ff ff       	mov    $0xffffffff,%eax
 8049d0b:	e9 6e 02 00 00       	jmp    8049f7e <submitr+0x7c1>
 8049d10:	8d 85 d4 5f ff ff    	lea    -0xa02c(%ebp),%eax
 8049d16:	89 44 24 10          	mov    %eax,0x10(%esp)
 8049d1a:	8d 85 d4 7f ff ff    	lea    -0x802c(%ebp),%eax
 8049d20:	89 44 24 0c          	mov    %eax,0xc(%esp)
 8049d24:	8d 85 d8 7f ff ff    	lea    -0x8028(%ebp),%eax
 8049d2a:	89 44 24 08          	mov    %eax,0x8(%esp)
 8049d2e:	c7 44 24 04 53 aa 04 	movl   $0x804aa53,0x4(%esp)
 8049d35:	08 
 8049d36:	8d 85 d8 bf ff ff    	lea    -0x4028(%ebp),%eax
 8049d3c:	89 04 24             	mov    %eax,(%esp)
 8049d3f:	e8 b0 ec ff ff       	call   80489f4 <sscanf@plt>
 8049d44:	8b 95 d4 7f ff ff    	mov    -0x802c(%ebp),%edx
 8049d4a:	8d 9d d8 bf ff ff    	lea    -0x4028(%ebp),%ebx
 8049d50:	8d b5 d8 df ff ff    	lea    -0x2028(%ebp),%esi
 8049d56:	81 fa c8 00 00 00    	cmp    $0xc8,%edx
 8049d5c:	0f 84 cf 00 00 00    	je     8049e31 <submitr+0x674>
 8049d62:	8d 85 d4 5f ff ff    	lea    -0xa02c(%ebp),%eax
 8049d68:	89 44 24 0c          	mov    %eax,0xc(%esp)
 8049d6c:	89 54 24 08          	mov    %edx,0x8(%esp)
 8049d70:	c7 44 24 04 9c a9 04 	movl   $0x804a99c,0x4(%esp)
 8049d77:	08 
 8049d78:	8b 4d 20             	mov    0x20(%ebp),%ecx
 8049d7b:	89 0c 24             	mov    %ecx,(%esp)
 8049d7e:	e8 b1 ea ff ff       	call   8048834 <sprintf@plt>
 8049d83:	8b 85 c0 5f ff ff    	mov    -0xa040(%ebp),%eax
 8049d89:	89 04 24             	mov    %eax,(%esp)
 8049d8c:	e8 03 ec ff ff       	call   8048994 <close@plt>
 8049d91:	b8 ff ff ff ff       	mov    $0xffffffff,%eax
 8049d96:	e9 e3 01 00 00       	jmp    8049f7e <submitr+0x7c1>
 8049d9b:	b9 00 20 00 00       	mov    $0x2000,%ecx
 8049da0:	89 da                	mov    %ebx,%edx
 8049da2:	89 f0                	mov    %esi,%eax
 8049da4:	e8 4d f9 ff ff       	call   80496f6 <rio_readlineb>
 8049da9:	85 c0                	test   %eax,%eax
 8049dab:	0f 8f 80 00 00 00    	jg     8049e31 <submitr+0x674>
 8049db1:	8b 55 20             	mov    0x20(%ebp),%edx
 8049db4:	c7 02 45 72 72 6f    	movl   $0x6f727245,(%edx)
 8049dba:	c7 42 04 72 3a 20 43 	movl   $0x43203a72,0x4(%edx)
 8049dc1:	c7 42 08 6c 69 65 6e 	movl   $0x6e65696c,0x8(%edx)
 8049dc8:	c7 42 0c 74 20 75 6e 	movl   $0x6e752074,0xc(%edx)
 8049dcf:	c7 42 10 61 62 6c 65 	movl   $0x656c6261,0x10(%edx)
 8049dd6:	c7 42 14 20 74 6f 20 	movl   $0x206f7420,0x14(%edx)
 8049ddd:	c7 42 18 72 65 61 64 	movl   $0x64616572,0x18(%edx)
 8049de4:	c7 42 1c 20 68 65 61 	movl   $0x61656820,0x1c(%edx)
 8049deb:	c7 42 20 64 65 72 73 	movl   $0x73726564,0x20(%edx)
 8049df2:	c7 42 24 20 66 72 6f 	movl   $0x6f726620,0x24(%edx)
 8049df9:	c7 42 28 6d 20 41 75 	movl   $0x7541206d,0x28(%edx)
 8049e00:	c7 42 2c 74 6f 6c 61 	movl   $0x616c6f74,0x2c(%edx)
 8049e07:	c7 42 30 62 20 73 65 	movl   $0x65732062,0x30(%edx)
 8049e0e:	c7 42 34 72 76 65 72 	movl   $0x72657672,0x34(%edx)
 8049e15:	c6 42 38 00          	movb   $0x0,0x38(%edx)
 8049e19:	8b 8d c0 5f ff ff    	mov    -0xa040(%ebp),%ecx
 8049e1f:	89 0c 24             	mov    %ecx,(%esp)
 8049e22:	e8 6d eb ff ff       	call   8048994 <close@plt>
 8049e27:	b8 ff ff ff ff       	mov    $0xffffffff,%eax
 8049e2c:	e9 4d 01 00 00       	jmp    8049f7e <submitr+0x7c1>
 8049e31:	80 3b 0d             	cmpb   $0xd,(%ebx)
 8049e34:	0f 85 61 ff ff ff    	jne    8049d9b <submitr+0x5de>
 8049e3a:	80 7b 01 0a          	cmpb   $0xa,0x1(%ebx)
 8049e3e:	66 90                	xchg   %ax,%ax
 8049e40:	0f 85 55 ff ff ff    	jne    8049d9b <submitr+0x5de>
 8049e46:	80 7b 02 00          	cmpb   $0x0,0x2(%ebx)
 8049e4a:	0f 85 4b ff ff ff    	jne    8049d9b <submitr+0x5de>
 8049e50:	8d 95 d8 bf ff ff    	lea    -0x4028(%ebp),%edx
 8049e56:	8d 85 d8 df ff ff    	lea    -0x2028(%ebp),%eax
 8049e5c:	b9 00 20 00 00       	mov    $0x2000,%ecx
 8049e61:	e8 90 f8 ff ff       	call   80496f6 <rio_readlineb>
 8049e66:	85 c0                	test   %eax,%eax
 8049e68:	0f 8f 8a 00 00 00    	jg     8049ef8 <submitr+0x73b>
 8049e6e:	8b 45 20             	mov    0x20(%ebp),%eax
 8049e71:	c7 00 45 72 72 6f    	movl   $0x6f727245,(%eax)
 8049e77:	c7 40 04 72 3a 20 43 	movl   $0x43203a72,0x4(%eax)
 8049e7e:	c7 40 08 6c 69 65 6e 	movl   $0x6e65696c,0x8(%eax)
 8049e85:	c7 40 0c 74 20 75 6e 	movl   $0x6e752074,0xc(%eax)
 8049e8c:	c7 40 10 61 62 6c 65 	movl   $0x656c6261,0x10(%eax)
 8049e93:	c7 40 14 20 74 6f 20 	movl   $0x206f7420,0x14(%eax)
 8049e9a:	c7 40 18 72 65 61 64 	movl   $0x64616572,0x18(%eax)
 8049ea1:	c7 40 1c 20 73 74 61 	movl   $0x61747320,0x1c(%eax)
 8049ea8:	c7 40 20 74 75 73 20 	movl   $0x20737574,0x20(%eax)
 8049eaf:	c7 40 24 6d 65 73 73 	movl   $0x7373656d,0x24(%eax)
 8049eb6:	c7 40 28 61 67 65 20 	movl   $0x20656761,0x28(%eax)
 8049ebd:	c7 40 2c 66 72 6f 6d 	movl   $0x6d6f7266,0x2c(%eax)
 8049ec4:	c7 40 30 20 41 75 74 	movl   $0x74754120,0x30(%eax)
 8049ecb:	c7 40 34 6f 6c 61 62 	movl   $0x62616c6f,0x34(%eax)
 8049ed2:	c7 40 38 20 73 65 72 	movl   $0x72657320,0x38(%eax)
 8049ed9:	c7 40 3c 76 65 72 00 	movl   $0x726576,0x3c(%eax)
 8049ee0:	8b 95 c0 5f ff ff    	mov    -0xa040(%ebp),%edx
 8049ee6:	89 14 24             	mov    %edx,(%esp)
 8049ee9:	e8 a6 ea ff ff       	call   8048994 <close@plt>
 8049eee:	b8 ff ff ff ff       	mov    $0xffffffff,%eax
 8049ef3:	e9 86 00 00 00       	jmp    8049f7e <submitr+0x7c1>
 8049ef8:	8d 85 d8 bf ff ff    	lea    -0x4028(%ebp),%eax
 8049efe:	89 44 24 04          	mov    %eax,0x4(%esp)
 8049f02:	8b 4d 20             	mov    0x20(%ebp),%ecx
 8049f05:	89 0c 24             	mov    %ecx,(%esp)
 8049f08:	e8 47 ea ff ff       	call   8048954 <strcpy@plt>
 8049f0d:	8b 85 c0 5f ff ff    	mov    -0xa040(%ebp),%eax
 8049f13:	89 04 24             	mov    %eax,(%esp)
 8049f16:	e8 79 ea ff ff       	call   8048994 <close@plt>
 8049f1b:	8b 5d 20             	mov    0x20(%ebp),%ebx
 8049f1e:	0f b6 13             	movzbl (%ebx),%edx
 8049f21:	89 95 bc 5f ff ff    	mov    %edx,-0xa044(%ebp)
 8049f27:	83 fa 4f             	cmp    $0x4f,%edx
 8049f2a:	75 16                	jne    8049f42 <submitr+0x785>
 8049f2c:	80 7b 01 4b          	cmpb   $0x4b,0x1(%ebx)
 8049f30:	75 10                	jne    8049f42 <submitr+0x785>
 8049f32:	80 7b 02 0a          	cmpb   $0xa,0x2(%ebx)
 8049f36:	75 0a                	jne    8049f42 <submitr+0x785>
 8049f38:	80 7b 03 00          	cmpb   $0x0,0x3(%ebx)
 8049f3c:	8d 74 26 00          	lea    0x0(%esi,%eiz,1),%esi
 8049f40:	74 30                	je     8049f72 <submitr+0x7b5>
 8049f42:	8b 75 20             	mov    0x20(%ebp),%esi
 8049f45:	bf 64 aa 04 08       	mov    $0x804aa64,%edi
 8049f4a:	b9 05 00 00 00       	mov    $0x5,%ecx
 8049f4f:	f3 a6                	repz cmpsb %es:(%edi),%ds:(%esi)
 8049f51:	0f 97 c2             	seta   %dl
 8049f54:	0f 92 c0             	setb   %al
 8049f57:	38 c2                	cmp    %al,%dl
 8049f59:	74 17                	je     8049f72 <submitr+0x7b5>
 8049f5b:	83 bd bc 5f ff ff 4f 	cmpl   $0x4f,-0xa044(%ebp)
 8049f62:	75 15                	jne    8049f79 <submitr+0x7bc>
 8049f64:	80 7b 01 4b          	cmpb   $0x4b,0x1(%ebx)
 8049f68:	75 0f                	jne    8049f79 <submitr+0x7bc>
 8049f6a:	80 7b 02 00          	cmpb   $0x0,0x2(%ebx)
 8049f6e:	66 90                	xchg   %ax,%ax
 8049f70:	75 07                	jne    8049f79 <submitr+0x7bc>
 8049f72:	b8 00 00 00 00       	mov    $0x0,%eax
 8049f77:	eb 05                	jmp    8049f7e <submitr+0x7c1>
 8049f79:	b8 ff ff ff ff       	mov    $0xffffffff,%eax
 8049f7e:	81 c4 5c a0 00 00    	add    $0xa05c,%esp
 8049f84:	5b                   	pop    %ebx
 8049f85:	5e                   	pop    %esi
 8049f86:	5f                   	pop    %edi
 8049f87:	5d                   	pop    %ebp
 8049f88:	c3                   	ret    
 8049f89:	8b 4d 08             	mov    0x8(%ebp),%ecx
 8049f8c:	89 4c 24 18          	mov    %ecx,0x18(%esp)
 8049f90:	8d 85 d8 9f ff ff    	lea    -0x6028(%ebp),%eax
 8049f96:	89 44 24 14          	mov    %eax,0x14(%esp)
 8049f9a:	8b 45 18             	mov    0x18(%ebp),%eax
 8049f9d:	89 44 24 10          	mov    %eax,0x10(%esp)
 8049fa1:	8b 55 14             	mov    0x14(%ebp),%edx
 8049fa4:	89 54 24 0c          	mov    %edx,0xc(%esp)
 8049fa8:	8b 4d 10             	mov    0x10(%ebp),%ecx
 8049fab:	89 4c 24 08          	mov    %ecx,0x8(%esp)
 8049faf:	c7 44 24 04 cc a9 04 	movl   $0x804a9cc,0x4(%esp)
 8049fb6:	08 
 8049fb7:	8d bd d8 bf ff ff    	lea    -0x4028(%ebp),%edi
 8049fbd:	89 3c 24             	mov    %edi,(%esp)
 8049fc0:	e8 6f e8 ff ff       	call   8048834 <sprintf@plt>
 8049fc5:	b8 00 00 00 00       	mov    $0x0,%eax
 8049fca:	b9 ff ff ff ff       	mov    $0xffffffff,%ecx
 8049fcf:	f2 ae                	repnz scas %es:(%edi),%al
 8049fd1:	f7 d1                	not    %ecx
 8049fd3:	89 cf                	mov    %ecx,%edi
 8049fd5:	83 ef 01             	sub    $0x1,%edi
 8049fd8:	0f 84 69 fc ff ff    	je     8049c47 <submitr+0x48a>
 8049fde:	89 fb                	mov    %edi,%ebx
 8049fe0:	8d b5 d8 bf ff ff    	lea    -0x4028(%ebp),%esi
 8049fe6:	e9 b2 fb ff ff       	jmp    8049b9d <submitr+0x3e0>

08049feb <driver_post>:
 8049feb:	55                   	push   %ebp
 8049fec:	89 e5                	mov    %esp,%ebp
 8049fee:	53                   	push   %ebx
 8049fef:	83 ec 24             	sub    $0x24,%esp
 8049ff2:	8b 45 08             	mov    0x8(%ebp),%eax
 8049ff5:	8b 5d 14             	mov    0x14(%ebp),%ebx
 8049ff8:	83 7d 10 00          	cmpl   $0x0,0x10(%ebp)
 8049ffc:	74 23                	je     804a021 <driver_post+0x36>
 8049ffe:	8b 45 0c             	mov    0xc(%ebp),%eax
 804a001:	89 44 24 04          	mov    %eax,0x4(%esp)
 804a005:	c7 04 24 69 aa 04 08 	movl   $0x804aa69,(%esp)
 804a00c:	e8 53 e9 ff ff       	call   8048964 <printf@plt>
 804a011:	66 c7 03 4f 4b       	movw   $0x4b4f,(%ebx)
 804a016:	c6 43 02 00          	movb   $0x0,0x2(%ebx)
 804a01a:	b8 00 00 00 00       	mov    $0x0,%eax
 804a01f:	eb 4c                	jmp    804a06d <driver_post+0x82>
 804a021:	85 c0                	test   %eax,%eax
 804a023:	74 3a                	je     804a05f <driver_post+0x74>
 804a025:	80 38 00             	cmpb   $0x0,(%eax)
 804a028:	74 35                	je     804a05f <driver_post+0x74>
 804a02a:	89 5c 24 18          	mov    %ebx,0x18(%esp)
 804a02e:	8b 55 0c             	mov    0xc(%ebp),%edx
 804a031:	89 54 24 14          	mov    %edx,0x14(%esp)
 804a035:	c7 44 24 10 80 aa 04 	movl   $0x804aa80,0x10(%esp)
 804a03c:	08 
 804a03d:	89 44 24 0c          	mov    %eax,0xc(%esp)
 804a041:	c7 44 24 08 87 aa 04 	movl   $0x804aa87,0x8(%esp)
 804a048:	08 
 804a049:	c7 44 24 04 50 00 00 	movl   $0x50,0x4(%esp)
 804a050:	00 
 804a051:	c7 04 24 38 a9 04 08 	movl   $0x804a938,(%esp)
 804a058:	e8 60 f7 ff ff       	call   80497bd <submitr>
 804a05d:	eb 0e                	jmp    804a06d <driver_post+0x82>
 804a05f:	66 c7 03 4f 4b       	movw   $0x4b4f,(%ebx)
 804a064:	c6 43 02 00          	movb   $0x0,0x2(%ebx)
 804a068:	b8 00 00 00 00       	mov    $0x0,%eax
 804a06d:	83 c4 24             	add    $0x24,%esp
 804a070:	5b                   	pop    %ebx
 804a071:	5d                   	pop    %ebp
 804a072:	c3                   	ret    

0804a073 <sigalrm_handler>:
 804a073:	55                   	push   %ebp
 804a074:	89 e5                	mov    %esp,%ebp
 804a076:	83 ec 18             	sub    $0x18,%esp
 804a079:	c7 44 24 08 00 00 00 	movl   $0x0,0x8(%esp)
 804a080:	00 
 804a081:	c7 44 24 04 28 aa 04 	movl   $0x804aa28,0x4(%esp)
 804a088:	08 
 804a089:	a1 00 b3 04 08       	mov    0x804b300,%eax
 804a08e:	89 04 24             	mov    %eax,(%esp)
 804a091:	e8 1e e9 ff ff       	call   80489b4 <fprintf@plt>
 804a096:	c7 04 24 01 00 00 00 	movl   $0x1,(%esp)
 804a09d:	e8 92 e9 ff ff       	call   8048a34 <exit@plt>
 804a0a2:	90                   	nop
 804a0a3:	90                   	nop
 804a0a4:	90                   	nop
 804a0a5:	90                   	nop
 804a0a6:	90                   	nop
 804a0a7:	90                   	nop
 804a0a8:	90                   	nop
 804a0a9:	90                   	nop
 804a0aa:	90                   	nop
 804a0ab:	90                   	nop
 804a0ac:	90                   	nop
 804a0ad:	90                   	nop
 804a0ae:	90                   	nop
 804a0af:	90                   	nop

0804a0b0 <hash>:
 804a0b0:	55                   	push   %ebp
 804a0b1:	89 e5                	mov    %esp,%ebp
 804a0b3:	8b 4d 08             	mov    0x8(%ebp),%ecx
 804a0b6:	0f b6 01             	movzbl (%ecx),%eax
 804a0b9:	ba 00 00 00 00       	mov    $0x0,%edx
 804a0be:	84 c0                	test   %al,%al
 804a0c0:	74 13                	je     804a0d5 <hash+0x25>
 804a0c2:	6b d2 67             	imul   $0x67,%edx,%edx
 804a0c5:	0f be c0             	movsbl %al,%eax
 804a0c8:	8d 14 10             	lea    (%eax,%edx,1),%edx
 804a0cb:	83 c1 01             	add    $0x1,%ecx
 804a0ce:	0f b6 01             	movzbl (%ecx),%eax
 804a0d1:	84 c0                	test   %al,%al
 804a0d3:	75 ed                	jne    804a0c2 <hash+0x12>
 804a0d5:	89 d0                	mov    %edx,%eax
 804a0d7:	5d                   	pop    %ebp
 804a0d8:	c3                   	ret    

0804a0d9 <check>:
 804a0d9:	55                   	push   %ebp
 804a0da:	89 e5                	mov    %esp,%ebp
 804a0dc:	8b 55 08             	mov    0x8(%ebp),%edx
 804a0df:	89 d0                	mov    %edx,%eax
 804a0e1:	c1 e8 1c             	shr    $0x1c,%eax
 804a0e4:	85 c0                	test   %eax,%eax
 804a0e6:	74 1c                	je     804a104 <check+0x2b>
 804a0e8:	b9 00 00 00 00       	mov    $0x0,%ecx
 804a0ed:	89 d0                	mov    %edx,%eax
 804a0ef:	d3 e8                	shr    %cl,%eax
 804a0f1:	3c 0a                	cmp    $0xa,%al
 804a0f3:	74 0f                	je     804a104 <check+0x2b>
 804a0f5:	83 c1 08             	add    $0x8,%ecx
 804a0f8:	83 f9 20             	cmp    $0x20,%ecx
 804a0fb:	75 f0                	jne    804a0ed <check+0x14>
 804a0fd:	b8 01 00 00 00       	mov    $0x1,%eax
 804a102:	eb 05                	jmp    804a109 <check+0x30>
 804a104:	b8 00 00 00 00       	mov    $0x0,%eax
 804a109:	5d                   	pop    %ebp
 804a10a:	c3                   	ret    

0804a10b <gencookie>:
 804a10b:	55                   	push   %ebp
 804a10c:	89 e5                	mov    %esp,%ebp
 804a10e:	53                   	push   %ebx
 804a10f:	83 ec 04             	sub    $0x4,%esp
 804a112:	8b 45 08             	mov    0x8(%ebp),%eax
 804a115:	89 04 24             	mov    %eax,(%esp)
 804a118:	e8 93 ff ff ff       	call   804a0b0 <hash>
 804a11d:	89 04 24             	mov    %eax,(%esp)
 804a120:	e8 1f e7 ff ff       	call   8048844 <srand@plt>
 804a125:	e8 ba e8 ff ff       	call   80489e4 <rand@plt>
 804a12a:	89 c3                	mov    %eax,%ebx
 804a12c:	89 04 24             	mov    %eax,(%esp)
 804a12f:	e8 a5 ff ff ff       	call   804a0d9 <check>
 804a134:	85 c0                	test   %eax,%eax
 804a136:	74 ed                	je     804a125 <gencookie+0x1a>
 804a138:	89 d8                	mov    %ebx,%eax
 804a13a:	83 c4 04             	add    $0x4,%esp
 804a13d:	5b                   	pop    %ebx
 804a13e:	5d                   	pop    %ebp
 804a13f:	c3                   	ret    

0804a140 <__libc_csu_fini>:
 804a140:	55                   	push   %ebp
 804a141:	89 e5                	mov    %esp,%ebp
 804a143:	5d                   	pop    %ebp
 804a144:	c3                   	ret    
 804a145:	8d 74 26 00          	lea    0x0(%esi,%eiz,1),%esi
 804a149:	8d bc 27 00 00 00 00 	lea    0x0(%edi,%eiz,1),%edi

0804a150 <__libc_csu_init>:
 804a150:	55                   	push   %ebp
 804a151:	89 e5                	mov    %esp,%ebp
 804a153:	57                   	push   %edi
 804a154:	56                   	push   %esi
 804a155:	53                   	push   %ebx
 804a156:	e8 5e 00 00 00       	call   804a1b9 <__i686.get_pc_thunk.bx>
 804a15b:	81 c3 85 0f 00 00    	add    $0xf85,%ebx
 804a161:	83 ec 1c             	sub    $0x1c,%esp
 804a164:	e8 93 e6 ff ff       	call   80487fc <_init>
 804a169:	8d 83 20 ff ff ff    	lea    -0xe0(%ebx),%eax
 804a16f:	89 45 f0             	mov    %eax,-0x10(%ebp)
 804a172:	8d 83 20 ff ff ff    	lea    -0xe0(%ebx),%eax
 804a178:	29 45 f0             	sub    %eax,-0x10(%ebp)
 804a17b:	c1 7d f0 02          	sarl   $0x2,-0x10(%ebp)
 804a17f:	8b 55 f0             	mov    -0x10(%ebp),%edx
 804a182:	85 d2                	test   %edx,%edx
 804a184:	74 2b                	je     804a1b1 <__libc_csu_init+0x61>
 804a186:	31 ff                	xor    %edi,%edi
 804a188:	89 c6                	mov    %eax,%esi
 804a18a:	8d b6 00 00 00 00    	lea    0x0(%esi),%esi
 804a190:	8b 45 10             	mov    0x10(%ebp),%eax
 804a193:	83 c7 01             	add    $0x1,%edi
 804a196:	89 44 24 08          	mov    %eax,0x8(%esp)
 804a19a:	8b 45 0c             	mov    0xc(%ebp),%eax
 804a19d:	89 44 24 04          	mov    %eax,0x4(%esp)
 804a1a1:	8b 45 08             	mov    0x8(%ebp),%eax
 804a1a4:	89 04 24             	mov    %eax,(%esp)
 804a1a7:	ff 16                	call   *(%esi)
 804a1a9:	83 c6 04             	add    $0x4,%esi
 804a1ac:	39 7d f0             	cmp    %edi,-0x10(%ebp)
 804a1af:	75 df                	jne    804a190 <__libc_csu_init+0x40>
 804a1b1:	83 c4 1c             	add    $0x1c,%esp
 804a1b4:	5b                   	pop    %ebx
 804a1b5:	5e                   	pop    %esi
 804a1b6:	5f                   	pop    %edi
 804a1b7:	5d                   	pop    %ebp
 804a1b8:	c3                   	ret    

0804a1b9 <__i686.get_pc_thunk.bx>:
 804a1b9:	8b 1c 24             	mov    (%esp),%ebx
 804a1bc:	c3                   	ret    
 804a1bd:	90                   	nop
 804a1be:	90                   	nop
 804a1bf:	90                   	nop

0804a1c0 <__do_global_ctors_aux>:
 804a1c0:	55                   	push   %ebp
 804a1c1:	89 e5                	mov    %esp,%ebp
 804a1c3:	53                   	push   %ebx
 804a1c4:	83 ec 04             	sub    $0x4,%esp
 804a1c7:	a1 00 b0 04 08       	mov    0x804b000,%eax
 804a1cc:	83 f8 ff             	cmp    $0xffffffff,%eax
 804a1cf:	74 13                	je     804a1e4 <__do_global_ctors_aux+0x24>
 804a1d1:	bb 00 b0 04 08       	mov    $0x804b000,%ebx
 804a1d6:	66 90                	xchg   %ax,%ax
 804a1d8:	83 eb 04             	sub    $0x4,%ebx
 804a1db:	ff d0                	call   *%eax
 804a1dd:	8b 03                	mov    (%ebx),%eax
 804a1df:	83 f8 ff             	cmp    $0xffffffff,%eax
 804a1e2:	75 f4                	jne    804a1d8 <__do_global_ctors_aux+0x18>
 804a1e4:	83 c4 04             	add    $0x4,%esp
 804a1e7:	5b                   	pop    %ebx
 804a1e8:	5d                   	pop    %ebp
 804a1e9:	c3                   	ret    
 804a1ea:	90                   	nop
 804a1eb:	90                   	nop

Disassembly of section .fini:

0804a1ec <_fini>:
 804a1ec:	55                   	push   %ebp
 804a1ed:	89 e5                	mov    %esp,%ebp
 804a1ef:	53                   	push   %ebx
 804a1f0:	83 ec 04             	sub    $0x4,%esp
 804a1f3:	e8 00 00 00 00       	call   804a1f8 <_fini+0xc>
 804a1f8:	5b                   	pop    %ebx
 804a1f9:	81 c3 e8 0e 00 00    	add    $0xee8,%ebx
 804a1ff:	e8 9c e8 ff ff       	call   8048aa0 <__do_global_dtors_aux>
 804a204:	59                   	pop    %ecx
 804a205:	5b                   	pop    %ebx
 804a206:	c9                   	leave  
 804a207:	c3                   	ret    
